
user/_usertests:     file format elf64-littleriscv


Disassembly of section .text:

0000000000000000 <r_sp>:
  return (x & SSTATUS_SIE) != 0;
}

static inline uint64
r_sp()
{
       0:	1101                	addi	sp,sp,-32
       2:	ec22                	sd	s0,24(sp)
       4:	1000                	addi	s0,sp,32
  uint64 x;
  asm volatile("mv %0, sp" : "=r" (x) );
       6:	878a                	mv	a5,sp
       8:	fef43423          	sd	a5,-24(s0)
  return x;
       c:	fe843783          	ld	a5,-24(s0)
}
      10:	853e                	mv	a0,a5
      12:	6462                	ld	s0,24(sp)
      14:	6105                	addi	sp,sp,32
      16:	8082                	ret

0000000000000018 <copyin>:

// what if you pass ridiculous pointers to system calls
// that read user memory with copyin?
void
copyin(char *s)
{
      18:	715d                	addi	sp,sp,-80
      1a:	e486                	sd	ra,72(sp)
      1c:	e0a2                	sd	s0,64(sp)
      1e:	0880                	addi	s0,sp,80
      20:	faa43c23          	sd	a0,-72(s0)
  uint64 addrs[] = { 0x80000000LL, 0xffffffffffffffff };
      24:	4785                	li	a5,1
      26:	07fe                	slli	a5,a5,0x1f
      28:	fcf43423          	sd	a5,-56(s0)
      2c:	57fd                	li	a5,-1
      2e:	fcf43823          	sd	a5,-48(s0)

  for(int ai = 0; ai < 2; ai++){
      32:	fe042623          	sw	zero,-20(s0)
      36:	a245                	j	1d6 <copyin+0x1be>
    uint64 addr = addrs[ai];
      38:	fec42783          	lw	a5,-20(s0)
      3c:	078e                	slli	a5,a5,0x3
      3e:	ff040713          	addi	a4,s0,-16
      42:	97ba                	add	a5,a5,a4
      44:	fd87b783          	ld	a5,-40(a5)
      48:	fef43023          	sd	a5,-32(s0)
    
    int fd = open("copyin1", O_CREATE|O_WRONLY);
      4c:	20100593          	li	a1,513
      50:	00008517          	auipc	a0,0x8
      54:	ec050513          	addi	a0,a0,-320 # 7f10 <malloc+0x4a0>
      58:	00007097          	auipc	ra,0x7
      5c:	330080e7          	jalr	816(ra) # 7388 <open>
      60:	87aa                	mv	a5,a0
      62:	fcf42e23          	sw	a5,-36(s0)
    if(fd < 0){
      66:	fdc42783          	lw	a5,-36(s0)
      6a:	2781                	sext.w	a5,a5
      6c:	0007df63          	bgez	a5,8a <copyin+0x72>
      printf("open(copyin1) failed\n");
      70:	00008517          	auipc	a0,0x8
      74:	ea850513          	addi	a0,a0,-344 # 7f18 <malloc+0x4a8>
      78:	00008097          	auipc	ra,0x8
      7c:	806080e7          	jalr	-2042(ra) # 787e <printf>
      exit(1);
      80:	4505                	li	a0,1
      82:	00007097          	auipc	ra,0x7
      86:	2c6080e7          	jalr	710(ra) # 7348 <exit>
    }
    int n = write(fd, (void*)addr, 8192);
      8a:	fe043703          	ld	a4,-32(s0)
      8e:	fdc42783          	lw	a5,-36(s0)
      92:	6609                	lui	a2,0x2
      94:	85ba                	mv	a1,a4
      96:	853e                	mv	a0,a5
      98:	00007097          	auipc	ra,0x7
      9c:	2d0080e7          	jalr	720(ra) # 7368 <write>
      a0:	87aa                	mv	a5,a0
      a2:	fcf42c23          	sw	a5,-40(s0)
    if(n >= 0){
      a6:	fd842783          	lw	a5,-40(s0)
      aa:	2781                	sext.w	a5,a5
      ac:	0207c463          	bltz	a5,d4 <copyin+0xbc>
      printf("write(fd, %p, 8192) returned %d, not -1\n", addr, n);
      b0:	fd842783          	lw	a5,-40(s0)
      b4:	863e                	mv	a2,a5
      b6:	fe043583          	ld	a1,-32(s0)
      ba:	00008517          	auipc	a0,0x8
      be:	e7650513          	addi	a0,a0,-394 # 7f30 <malloc+0x4c0>
      c2:	00007097          	auipc	ra,0x7
      c6:	7bc080e7          	jalr	1980(ra) # 787e <printf>
      exit(1);
      ca:	4505                	li	a0,1
      cc:	00007097          	auipc	ra,0x7
      d0:	27c080e7          	jalr	636(ra) # 7348 <exit>
    }
    close(fd);
      d4:	fdc42783          	lw	a5,-36(s0)
      d8:	853e                	mv	a0,a5
      da:	00007097          	auipc	ra,0x7
      de:	296080e7          	jalr	662(ra) # 7370 <close>
    unlink("copyin1");
      e2:	00008517          	auipc	a0,0x8
      e6:	e2e50513          	addi	a0,a0,-466 # 7f10 <malloc+0x4a0>
      ea:	00007097          	auipc	ra,0x7
      ee:	2ae080e7          	jalr	686(ra) # 7398 <unlink>
    
    n = write(1, (char*)addr, 8192);
      f2:	fe043783          	ld	a5,-32(s0)
      f6:	6609                	lui	a2,0x2
      f8:	85be                	mv	a1,a5
      fa:	4505                	li	a0,1
      fc:	00007097          	auipc	ra,0x7
     100:	26c080e7          	jalr	620(ra) # 7368 <write>
     104:	87aa                	mv	a5,a0
     106:	fcf42c23          	sw	a5,-40(s0)
    if(n > 0){
     10a:	fd842783          	lw	a5,-40(s0)
     10e:	2781                	sext.w	a5,a5
     110:	02f05463          	blez	a5,138 <copyin+0x120>
      printf("write(1, %p, 8192) returned %d, not -1 or 0\n", addr, n);
     114:	fd842783          	lw	a5,-40(s0)
     118:	863e                	mv	a2,a5
     11a:	fe043583          	ld	a1,-32(s0)
     11e:	00008517          	auipc	a0,0x8
     122:	e4250513          	addi	a0,a0,-446 # 7f60 <malloc+0x4f0>
     126:	00007097          	auipc	ra,0x7
     12a:	758080e7          	jalr	1880(ra) # 787e <printf>
      exit(1);
     12e:	4505                	li	a0,1
     130:	00007097          	auipc	ra,0x7
     134:	218080e7          	jalr	536(ra) # 7348 <exit>
    }
    
    int fds[2];
    if(pipe(fds) < 0){
     138:	fc040793          	addi	a5,s0,-64
     13c:	853e                	mv	a0,a5
     13e:	00007097          	auipc	ra,0x7
     142:	21a080e7          	jalr	538(ra) # 7358 <pipe>
     146:	87aa                	mv	a5,a0
     148:	0007df63          	bgez	a5,166 <copyin+0x14e>
      printf("pipe() failed\n");
     14c:	00008517          	auipc	a0,0x8
     150:	e4450513          	addi	a0,a0,-444 # 7f90 <malloc+0x520>
     154:	00007097          	auipc	ra,0x7
     158:	72a080e7          	jalr	1834(ra) # 787e <printf>
      exit(1);
     15c:	4505                	li	a0,1
     15e:	00007097          	auipc	ra,0x7
     162:	1ea080e7          	jalr	490(ra) # 7348 <exit>
    }
    n = write(fds[1], (char*)addr, 8192);
     166:	fc442783          	lw	a5,-60(s0)
     16a:	fe043703          	ld	a4,-32(s0)
     16e:	6609                	lui	a2,0x2
     170:	85ba                	mv	a1,a4
     172:	853e                	mv	a0,a5
     174:	00007097          	auipc	ra,0x7
     178:	1f4080e7          	jalr	500(ra) # 7368 <write>
     17c:	87aa                	mv	a5,a0
     17e:	fcf42c23          	sw	a5,-40(s0)
    if(n > 0){
     182:	fd842783          	lw	a5,-40(s0)
     186:	2781                	sext.w	a5,a5
     188:	02f05463          	blez	a5,1b0 <copyin+0x198>
      printf("write(pipe, %p, 8192) returned %d, not -1 or 0\n", addr, n);
     18c:	fd842783          	lw	a5,-40(s0)
     190:	863e                	mv	a2,a5
     192:	fe043583          	ld	a1,-32(s0)
     196:	00008517          	auipc	a0,0x8
     19a:	e0a50513          	addi	a0,a0,-502 # 7fa0 <malloc+0x530>
     19e:	00007097          	auipc	ra,0x7
     1a2:	6e0080e7          	jalr	1760(ra) # 787e <printf>
      exit(1);
     1a6:	4505                	li	a0,1
     1a8:	00007097          	auipc	ra,0x7
     1ac:	1a0080e7          	jalr	416(ra) # 7348 <exit>
    }
    close(fds[0]);
     1b0:	fc042783          	lw	a5,-64(s0)
     1b4:	853e                	mv	a0,a5
     1b6:	00007097          	auipc	ra,0x7
     1ba:	1ba080e7          	jalr	442(ra) # 7370 <close>
    close(fds[1]);
     1be:	fc442783          	lw	a5,-60(s0)
     1c2:	853e                	mv	a0,a5
     1c4:	00007097          	auipc	ra,0x7
     1c8:	1ac080e7          	jalr	428(ra) # 7370 <close>
  for(int ai = 0; ai < 2; ai++){
     1cc:	fec42783          	lw	a5,-20(s0)
     1d0:	2785                	addiw	a5,a5,1
     1d2:	fef42623          	sw	a5,-20(s0)
     1d6:	fec42783          	lw	a5,-20(s0)
     1da:	0007871b          	sext.w	a4,a5
     1de:	4785                	li	a5,1
     1e0:	e4e7dce3          	bge	a5,a4,38 <copyin+0x20>
  }
}
     1e4:	0001                	nop
     1e6:	0001                	nop
     1e8:	60a6                	ld	ra,72(sp)
     1ea:	6406                	ld	s0,64(sp)
     1ec:	6161                	addi	sp,sp,80
     1ee:	8082                	ret

00000000000001f0 <copyout>:

// what if you pass ridiculous pointers to system calls
// that write user memory with copyout?
void
copyout(char *s)
{
     1f0:	715d                	addi	sp,sp,-80
     1f2:	e486                	sd	ra,72(sp)
     1f4:	e0a2                	sd	s0,64(sp)
     1f6:	0880                	addi	s0,sp,80
     1f8:	faa43c23          	sd	a0,-72(s0)
  uint64 addrs[] = { 0x80000000LL, 0xffffffffffffffff };
     1fc:	4785                	li	a5,1
     1fe:	07fe                	slli	a5,a5,0x1f
     200:	fcf43423          	sd	a5,-56(s0)
     204:	57fd                	li	a5,-1
     206:	fcf43823          	sd	a5,-48(s0)

  for(int ai = 0; ai < 2; ai++){
     20a:	fe042623          	sw	zero,-20(s0)
     20e:	a279                	j	39c <copyout+0x1ac>
    uint64 addr = addrs[ai];
     210:	fec42783          	lw	a5,-20(s0)
     214:	078e                	slli	a5,a5,0x3
     216:	ff040713          	addi	a4,s0,-16
     21a:	97ba                	add	a5,a5,a4
     21c:	fd87b783          	ld	a5,-40(a5)
     220:	fef43023          	sd	a5,-32(s0)

    int fd = open("README", 0);
     224:	4581                	li	a1,0
     226:	00008517          	auipc	a0,0x8
     22a:	daa50513          	addi	a0,a0,-598 # 7fd0 <malloc+0x560>
     22e:	00007097          	auipc	ra,0x7
     232:	15a080e7          	jalr	346(ra) # 7388 <open>
     236:	87aa                	mv	a5,a0
     238:	fcf42e23          	sw	a5,-36(s0)
    if(fd < 0){
     23c:	fdc42783          	lw	a5,-36(s0)
     240:	2781                	sext.w	a5,a5
     242:	0007df63          	bgez	a5,260 <copyout+0x70>
      printf("open(README) failed\n");
     246:	00008517          	auipc	a0,0x8
     24a:	d9250513          	addi	a0,a0,-622 # 7fd8 <malloc+0x568>
     24e:	00007097          	auipc	ra,0x7
     252:	630080e7          	jalr	1584(ra) # 787e <printf>
      exit(1);
     256:	4505                	li	a0,1
     258:	00007097          	auipc	ra,0x7
     25c:	0f0080e7          	jalr	240(ra) # 7348 <exit>
    }
    int n = read(fd, (void*)addr, 8192);
     260:	fe043703          	ld	a4,-32(s0)
     264:	fdc42783          	lw	a5,-36(s0)
     268:	6609                	lui	a2,0x2
     26a:	85ba                	mv	a1,a4
     26c:	853e                	mv	a0,a5
     26e:	00007097          	auipc	ra,0x7
     272:	0f2080e7          	jalr	242(ra) # 7360 <read>
     276:	87aa                	mv	a5,a0
     278:	fcf42c23          	sw	a5,-40(s0)
    if(n > 0){
     27c:	fd842783          	lw	a5,-40(s0)
     280:	2781                	sext.w	a5,a5
     282:	02f05463          	blez	a5,2aa <copyout+0xba>
      printf("read(fd, %p, 8192) returned %d, not -1 or 0\n", addr, n);
     286:	fd842783          	lw	a5,-40(s0)
     28a:	863e                	mv	a2,a5
     28c:	fe043583          	ld	a1,-32(s0)
     290:	00008517          	auipc	a0,0x8
     294:	d6050513          	addi	a0,a0,-672 # 7ff0 <malloc+0x580>
     298:	00007097          	auipc	ra,0x7
     29c:	5e6080e7          	jalr	1510(ra) # 787e <printf>
      exit(1);
     2a0:	4505                	li	a0,1
     2a2:	00007097          	auipc	ra,0x7
     2a6:	0a6080e7          	jalr	166(ra) # 7348 <exit>
    }
    close(fd);
     2aa:	fdc42783          	lw	a5,-36(s0)
     2ae:	853e                	mv	a0,a5
     2b0:	00007097          	auipc	ra,0x7
     2b4:	0c0080e7          	jalr	192(ra) # 7370 <close>

    int fds[2];
    if(pipe(fds) < 0){
     2b8:	fc040793          	addi	a5,s0,-64
     2bc:	853e                	mv	a0,a5
     2be:	00007097          	auipc	ra,0x7
     2c2:	09a080e7          	jalr	154(ra) # 7358 <pipe>
     2c6:	87aa                	mv	a5,a0
     2c8:	0007df63          	bgez	a5,2e6 <copyout+0xf6>
      printf("pipe() failed\n");
     2cc:	00008517          	auipc	a0,0x8
     2d0:	cc450513          	addi	a0,a0,-828 # 7f90 <malloc+0x520>
     2d4:	00007097          	auipc	ra,0x7
     2d8:	5aa080e7          	jalr	1450(ra) # 787e <printf>
      exit(1);
     2dc:	4505                	li	a0,1
     2de:	00007097          	auipc	ra,0x7
     2e2:	06a080e7          	jalr	106(ra) # 7348 <exit>
    }
    n = write(fds[1], "x", 1);
     2e6:	fc442783          	lw	a5,-60(s0)
     2ea:	4605                	li	a2,1
     2ec:	00008597          	auipc	a1,0x8
     2f0:	d3458593          	addi	a1,a1,-716 # 8020 <malloc+0x5b0>
     2f4:	853e                	mv	a0,a5
     2f6:	00007097          	auipc	ra,0x7
     2fa:	072080e7          	jalr	114(ra) # 7368 <write>
     2fe:	87aa                	mv	a5,a0
     300:	fcf42c23          	sw	a5,-40(s0)
    if(n != 1){
     304:	fd842783          	lw	a5,-40(s0)
     308:	0007871b          	sext.w	a4,a5
     30c:	4785                	li	a5,1
     30e:	00f70f63          	beq	a4,a5,32c <copyout+0x13c>
      printf("pipe write failed\n");
     312:	00008517          	auipc	a0,0x8
     316:	d1650513          	addi	a0,a0,-746 # 8028 <malloc+0x5b8>
     31a:	00007097          	auipc	ra,0x7
     31e:	564080e7          	jalr	1380(ra) # 787e <printf>
      exit(1);
     322:	4505                	li	a0,1
     324:	00007097          	auipc	ra,0x7
     328:	024080e7          	jalr	36(ra) # 7348 <exit>
    }
    n = read(fds[0], (void*)addr, 8192);
     32c:	fc042783          	lw	a5,-64(s0)
     330:	fe043703          	ld	a4,-32(s0)
     334:	6609                	lui	a2,0x2
     336:	85ba                	mv	a1,a4
     338:	853e                	mv	a0,a5
     33a:	00007097          	auipc	ra,0x7
     33e:	026080e7          	jalr	38(ra) # 7360 <read>
     342:	87aa                	mv	a5,a0
     344:	fcf42c23          	sw	a5,-40(s0)
    if(n > 0){
     348:	fd842783          	lw	a5,-40(s0)
     34c:	2781                	sext.w	a5,a5
     34e:	02f05463          	blez	a5,376 <copyout+0x186>
      printf("read(pipe, %p, 8192) returned %d, not -1 or 0\n", addr, n);
     352:	fd842783          	lw	a5,-40(s0)
     356:	863e                	mv	a2,a5
     358:	fe043583          	ld	a1,-32(s0)
     35c:	00008517          	auipc	a0,0x8
     360:	ce450513          	addi	a0,a0,-796 # 8040 <malloc+0x5d0>
     364:	00007097          	auipc	ra,0x7
     368:	51a080e7          	jalr	1306(ra) # 787e <printf>
      exit(1);
     36c:	4505                	li	a0,1
     36e:	00007097          	auipc	ra,0x7
     372:	fda080e7          	jalr	-38(ra) # 7348 <exit>
    }
    close(fds[0]);
     376:	fc042783          	lw	a5,-64(s0)
     37a:	853e                	mv	a0,a5
     37c:	00007097          	auipc	ra,0x7
     380:	ff4080e7          	jalr	-12(ra) # 7370 <close>
    close(fds[1]);
     384:	fc442783          	lw	a5,-60(s0)
     388:	853e                	mv	a0,a5
     38a:	00007097          	auipc	ra,0x7
     38e:	fe6080e7          	jalr	-26(ra) # 7370 <close>
  for(int ai = 0; ai < 2; ai++){
     392:	fec42783          	lw	a5,-20(s0)
     396:	2785                	addiw	a5,a5,1
     398:	fef42623          	sw	a5,-20(s0)
     39c:	fec42783          	lw	a5,-20(s0)
     3a0:	0007871b          	sext.w	a4,a5
     3a4:	4785                	li	a5,1
     3a6:	e6e7d5e3          	bge	a5,a4,210 <copyout+0x20>
  }
}
     3aa:	0001                	nop
     3ac:	0001                	nop
     3ae:	60a6                	ld	ra,72(sp)
     3b0:	6406                	ld	s0,64(sp)
     3b2:	6161                	addi	sp,sp,80
     3b4:	8082                	ret

00000000000003b6 <copyinstr1>:

// what if you pass ridiculous string pointers to system calls?
void
copyinstr1(char *s)
{
     3b6:	715d                	addi	sp,sp,-80
     3b8:	e486                	sd	ra,72(sp)
     3ba:	e0a2                	sd	s0,64(sp)
     3bc:	0880                	addi	s0,sp,80
     3be:	faa43c23          	sd	a0,-72(s0)
  uint64 addrs[] = { 0x80000000LL, 0xffffffffffffffff };
     3c2:	4785                	li	a5,1
     3c4:	07fe                	slli	a5,a5,0x1f
     3c6:	fcf43423          	sd	a5,-56(s0)
     3ca:	57fd                	li	a5,-1
     3cc:	fcf43823          	sd	a5,-48(s0)

  for(int ai = 0; ai < 2; ai++){
     3d0:	fe042623          	sw	zero,-20(s0)
     3d4:	a09d                	j	43a <copyinstr1+0x84>
    uint64 addr = addrs[ai];
     3d6:	fec42783          	lw	a5,-20(s0)
     3da:	078e                	slli	a5,a5,0x3
     3dc:	ff040713          	addi	a4,s0,-16
     3e0:	97ba                	add	a5,a5,a4
     3e2:	fd87b783          	ld	a5,-40(a5)
     3e6:	fef43023          	sd	a5,-32(s0)

    int fd = open((char *)addr, O_CREATE|O_WRONLY);
     3ea:	fe043783          	ld	a5,-32(s0)
     3ee:	20100593          	li	a1,513
     3f2:	853e                	mv	a0,a5
     3f4:	00007097          	auipc	ra,0x7
     3f8:	f94080e7          	jalr	-108(ra) # 7388 <open>
     3fc:	87aa                	mv	a5,a0
     3fe:	fcf42e23          	sw	a5,-36(s0)
    if(fd >= 0){
     402:	fdc42783          	lw	a5,-36(s0)
     406:	2781                	sext.w	a5,a5
     408:	0207c463          	bltz	a5,430 <copyinstr1+0x7a>
      printf("open(%p) returned %d, not -1\n", addr, fd);
     40c:	fdc42783          	lw	a5,-36(s0)
     410:	863e                	mv	a2,a5
     412:	fe043583          	ld	a1,-32(s0)
     416:	00008517          	auipc	a0,0x8
     41a:	c5a50513          	addi	a0,a0,-934 # 8070 <malloc+0x600>
     41e:	00007097          	auipc	ra,0x7
     422:	460080e7          	jalr	1120(ra) # 787e <printf>
      exit(1);
     426:	4505                	li	a0,1
     428:	00007097          	auipc	ra,0x7
     42c:	f20080e7          	jalr	-224(ra) # 7348 <exit>
  for(int ai = 0; ai < 2; ai++){
     430:	fec42783          	lw	a5,-20(s0)
     434:	2785                	addiw	a5,a5,1
     436:	fef42623          	sw	a5,-20(s0)
     43a:	fec42783          	lw	a5,-20(s0)
     43e:	0007871b          	sext.w	a4,a5
     442:	4785                	li	a5,1
     444:	f8e7d9e3          	bge	a5,a4,3d6 <copyinstr1+0x20>
    }
  }
}
     448:	0001                	nop
     44a:	0001                	nop
     44c:	60a6                	ld	ra,72(sp)
     44e:	6406                	ld	s0,64(sp)
     450:	6161                	addi	sp,sp,80
     452:	8082                	ret

0000000000000454 <copyinstr2>:
// what if a string system call argument is exactly the size
// of the kernel buffer it is copied into, so that the null
// would fall just beyond the end of the kernel buffer?
void
copyinstr2(char *s)
{
     454:	7151                	addi	sp,sp,-240
     456:	f586                	sd	ra,232(sp)
     458:	f1a2                	sd	s0,224(sp)
     45a:	1980                	addi	s0,sp,240
     45c:	f0a43c23          	sd	a0,-232(s0)
  char b[MAXPATH+1];

  for(int i = 0; i < MAXPATH; i++)
     460:	fe042623          	sw	zero,-20(s0)
     464:	a839                	j	482 <copyinstr2+0x2e>
    b[i] = 'x';
     466:	fec42783          	lw	a5,-20(s0)
     46a:	ff040713          	addi	a4,s0,-16
     46e:	97ba                	add	a5,a5,a4
     470:	07800713          	li	a4,120
     474:	f6e78423          	sb	a4,-152(a5)
  for(int i = 0; i < MAXPATH; i++)
     478:	fec42783          	lw	a5,-20(s0)
     47c:	2785                	addiw	a5,a5,1
     47e:	fef42623          	sw	a5,-20(s0)
     482:	fec42783          	lw	a5,-20(s0)
     486:	0007871b          	sext.w	a4,a5
     48a:	07f00793          	li	a5,127
     48e:	fce7dce3          	bge	a5,a4,466 <copyinstr2+0x12>
  b[MAXPATH] = '\0';
     492:	fc040c23          	sb	zero,-40(s0)
  
  int ret = unlink(b);
     496:	f5840793          	addi	a5,s0,-168
     49a:	853e                	mv	a0,a5
     49c:	00007097          	auipc	ra,0x7
     4a0:	efc080e7          	jalr	-260(ra) # 7398 <unlink>
     4a4:	87aa                	mv	a5,a0
     4a6:	fef42223          	sw	a5,-28(s0)
  if(ret != -1){
     4aa:	fe442783          	lw	a5,-28(s0)
     4ae:	0007871b          	sext.w	a4,a5
     4b2:	57fd                	li	a5,-1
     4b4:	02f70563          	beq	a4,a5,4de <copyinstr2+0x8a>
    printf("unlink(%s) returned %d, not -1\n", b, ret);
     4b8:	fe442703          	lw	a4,-28(s0)
     4bc:	f5840793          	addi	a5,s0,-168
     4c0:	863a                	mv	a2,a4
     4c2:	85be                	mv	a1,a5
     4c4:	00008517          	auipc	a0,0x8
     4c8:	bcc50513          	addi	a0,a0,-1076 # 8090 <malloc+0x620>
     4cc:	00007097          	auipc	ra,0x7
     4d0:	3b2080e7          	jalr	946(ra) # 787e <printf>
    exit(1);
     4d4:	4505                	li	a0,1
     4d6:	00007097          	auipc	ra,0x7
     4da:	e72080e7          	jalr	-398(ra) # 7348 <exit>
  }

  int fd = open(b, O_CREATE | O_WRONLY);
     4de:	f5840793          	addi	a5,s0,-168
     4e2:	20100593          	li	a1,513
     4e6:	853e                	mv	a0,a5
     4e8:	00007097          	auipc	ra,0x7
     4ec:	ea0080e7          	jalr	-352(ra) # 7388 <open>
     4f0:	87aa                	mv	a5,a0
     4f2:	fef42023          	sw	a5,-32(s0)
  if(fd != -1){
     4f6:	fe042783          	lw	a5,-32(s0)
     4fa:	0007871b          	sext.w	a4,a5
     4fe:	57fd                	li	a5,-1
     500:	02f70563          	beq	a4,a5,52a <copyinstr2+0xd6>
    printf("open(%s) returned %d, not -1\n", b, fd);
     504:	fe042703          	lw	a4,-32(s0)
     508:	f5840793          	addi	a5,s0,-168
     50c:	863a                	mv	a2,a4
     50e:	85be                	mv	a1,a5
     510:	00008517          	auipc	a0,0x8
     514:	ba050513          	addi	a0,a0,-1120 # 80b0 <malloc+0x640>
     518:	00007097          	auipc	ra,0x7
     51c:	366080e7          	jalr	870(ra) # 787e <printf>
    exit(1);
     520:	4505                	li	a0,1
     522:	00007097          	auipc	ra,0x7
     526:	e26080e7          	jalr	-474(ra) # 7348 <exit>
  }

  ret = link(b, b);
     52a:	f5840713          	addi	a4,s0,-168
     52e:	f5840793          	addi	a5,s0,-168
     532:	85ba                	mv	a1,a4
     534:	853e                	mv	a0,a5
     536:	00007097          	auipc	ra,0x7
     53a:	e72080e7          	jalr	-398(ra) # 73a8 <link>
     53e:	87aa                	mv	a5,a0
     540:	fef42223          	sw	a5,-28(s0)
  if(ret != -1){
     544:	fe442783          	lw	a5,-28(s0)
     548:	0007871b          	sext.w	a4,a5
     54c:	57fd                	li	a5,-1
     54e:	02f70763          	beq	a4,a5,57c <copyinstr2+0x128>
    printf("link(%s, %s) returned %d, not -1\n", b, b, ret);
     552:	fe442683          	lw	a3,-28(s0)
     556:	f5840713          	addi	a4,s0,-168
     55a:	f5840793          	addi	a5,s0,-168
     55e:	863a                	mv	a2,a4
     560:	85be                	mv	a1,a5
     562:	00008517          	auipc	a0,0x8
     566:	b6e50513          	addi	a0,a0,-1170 # 80d0 <malloc+0x660>
     56a:	00007097          	auipc	ra,0x7
     56e:	314080e7          	jalr	788(ra) # 787e <printf>
    exit(1);
     572:	4505                	li	a0,1
     574:	00007097          	auipc	ra,0x7
     578:	dd4080e7          	jalr	-556(ra) # 7348 <exit>
  }

  char *args[] = { "xx", 0 };
     57c:	00008797          	auipc	a5,0x8
     580:	b7c78793          	addi	a5,a5,-1156 # 80f8 <malloc+0x688>
     584:	f4f43423          	sd	a5,-184(s0)
     588:	f4043823          	sd	zero,-176(s0)
  ret = exec(b, args);
     58c:	f4840713          	addi	a4,s0,-184
     590:	f5840793          	addi	a5,s0,-168
     594:	85ba                	mv	a1,a4
     596:	853e                	mv	a0,a5
     598:	00007097          	auipc	ra,0x7
     59c:	de8080e7          	jalr	-536(ra) # 7380 <exec>
     5a0:	87aa                	mv	a5,a0
     5a2:	fef42223          	sw	a5,-28(s0)
  if(ret != -1){
     5a6:	fe442783          	lw	a5,-28(s0)
     5aa:	0007871b          	sext.w	a4,a5
     5ae:	57fd                	li	a5,-1
     5b0:	02f70563          	beq	a4,a5,5da <copyinstr2+0x186>
    printf("exec(%s) returned %d, not -1\n", b, fd);
     5b4:	fe042703          	lw	a4,-32(s0)
     5b8:	f5840793          	addi	a5,s0,-168
     5bc:	863a                	mv	a2,a4
     5be:	85be                	mv	a1,a5
     5c0:	00008517          	auipc	a0,0x8
     5c4:	b4050513          	addi	a0,a0,-1216 # 8100 <malloc+0x690>
     5c8:	00007097          	auipc	ra,0x7
     5cc:	2b6080e7          	jalr	694(ra) # 787e <printf>
    exit(1);
     5d0:	4505                	li	a0,1
     5d2:	00007097          	auipc	ra,0x7
     5d6:	d76080e7          	jalr	-650(ra) # 7348 <exit>
  }

  int pid = fork();
     5da:	00007097          	auipc	ra,0x7
     5de:	d66080e7          	jalr	-666(ra) # 7340 <fork>
     5e2:	87aa                	mv	a5,a0
     5e4:	fcf42e23          	sw	a5,-36(s0)
  if(pid < 0){
     5e8:	fdc42783          	lw	a5,-36(s0)
     5ec:	2781                	sext.w	a5,a5
     5ee:	0007df63          	bgez	a5,60c <copyinstr2+0x1b8>
    printf("fork failed\n");
     5f2:	00008517          	auipc	a0,0x8
     5f6:	b2e50513          	addi	a0,a0,-1234 # 8120 <malloc+0x6b0>
     5fa:	00007097          	auipc	ra,0x7
     5fe:	284080e7          	jalr	644(ra) # 787e <printf>
    exit(1);
     602:	4505                	li	a0,1
     604:	00007097          	auipc	ra,0x7
     608:	d44080e7          	jalr	-700(ra) # 7348 <exit>
  }
  if(pid == 0){
     60c:	fdc42783          	lw	a5,-36(s0)
     610:	2781                	sext.w	a5,a5
     612:	efd5                	bnez	a5,6ce <copyinstr2+0x27a>
    static char big[PGSIZE+1];
    for(int i = 0; i < PGSIZE; i++)
     614:	fe042423          	sw	zero,-24(s0)
     618:	a00d                	j	63a <copyinstr2+0x1e6>
      big[i] = 'x';
     61a:	0000f717          	auipc	a4,0xf
     61e:	4fe70713          	addi	a4,a4,1278 # fb18 <big.1274>
     622:	fe842783          	lw	a5,-24(s0)
     626:	97ba                	add	a5,a5,a4
     628:	07800713          	li	a4,120
     62c:	00e78023          	sb	a4,0(a5)
    for(int i = 0; i < PGSIZE; i++)
     630:	fe842783          	lw	a5,-24(s0)
     634:	2785                	addiw	a5,a5,1
     636:	fef42423          	sw	a5,-24(s0)
     63a:	fe842783          	lw	a5,-24(s0)
     63e:	0007871b          	sext.w	a4,a5
     642:	6785                	lui	a5,0x1
     644:	fcf74be3          	blt	a4,a5,61a <copyinstr2+0x1c6>
    big[PGSIZE] = '\0';
     648:	0000f717          	auipc	a4,0xf
     64c:	4d070713          	addi	a4,a4,1232 # fb18 <big.1274>
     650:	6785                	lui	a5,0x1
     652:	97ba                	add	a5,a5,a4
     654:	00078023          	sb	zero,0(a5) # 1000 <truncate3+0x1aa>
    char *args2[] = { big, big, big, 0 };
     658:	00008797          	auipc	a5,0x8
     65c:	b3878793          	addi	a5,a5,-1224 # 8190 <malloc+0x720>
     660:	6390                	ld	a2,0(a5)
     662:	6794                	ld	a3,8(a5)
     664:	6b98                	ld	a4,16(a5)
     666:	6f9c                	ld	a5,24(a5)
     668:	f2c43023          	sd	a2,-224(s0)
     66c:	f2d43423          	sd	a3,-216(s0)
     670:	f2e43823          	sd	a4,-208(s0)
     674:	f2f43c23          	sd	a5,-200(s0)
    ret = exec("echo", args2);
     678:	f2040793          	addi	a5,s0,-224
     67c:	85be                	mv	a1,a5
     67e:	00008517          	auipc	a0,0x8
     682:	ab250513          	addi	a0,a0,-1358 # 8130 <malloc+0x6c0>
     686:	00007097          	auipc	ra,0x7
     68a:	cfa080e7          	jalr	-774(ra) # 7380 <exec>
     68e:	87aa                	mv	a5,a0
     690:	fef42223          	sw	a5,-28(s0)
    if(ret != -1){
     694:	fe442783          	lw	a5,-28(s0)
     698:	0007871b          	sext.w	a4,a5
     69c:	57fd                	li	a5,-1
     69e:	02f70263          	beq	a4,a5,6c2 <copyinstr2+0x26e>
      printf("exec(echo, BIG) returned %d, not -1\n", fd);
     6a2:	fe042783          	lw	a5,-32(s0)
     6a6:	85be                	mv	a1,a5
     6a8:	00008517          	auipc	a0,0x8
     6ac:	a9050513          	addi	a0,a0,-1392 # 8138 <malloc+0x6c8>
     6b0:	00007097          	auipc	ra,0x7
     6b4:	1ce080e7          	jalr	462(ra) # 787e <printf>
      exit(1);
     6b8:	4505                	li	a0,1
     6ba:	00007097          	auipc	ra,0x7
     6be:	c8e080e7          	jalr	-882(ra) # 7348 <exit>
    }
    exit(747); // OK
     6c2:	2eb00513          	li	a0,747
     6c6:	00007097          	auipc	ra,0x7
     6ca:	c82080e7          	jalr	-894(ra) # 7348 <exit>
  }

  int st = 0;
     6ce:	f4042223          	sw	zero,-188(s0)
  wait(&st);
     6d2:	f4440793          	addi	a5,s0,-188
     6d6:	853e                	mv	a0,a5
     6d8:	00007097          	auipc	ra,0x7
     6dc:	c78080e7          	jalr	-904(ra) # 7350 <wait>
  if(st != 747){
     6e0:	f4442783          	lw	a5,-188(s0)
     6e4:	873e                	mv	a4,a5
     6e6:	2eb00793          	li	a5,747
     6ea:	00f70f63          	beq	a4,a5,708 <copyinstr2+0x2b4>
    printf("exec(echo, BIG) succeeded, should have failed\n");
     6ee:	00008517          	auipc	a0,0x8
     6f2:	a7250513          	addi	a0,a0,-1422 # 8160 <malloc+0x6f0>
     6f6:	00007097          	auipc	ra,0x7
     6fa:	188080e7          	jalr	392(ra) # 787e <printf>
    exit(1);
     6fe:	4505                	li	a0,1
     700:	00007097          	auipc	ra,0x7
     704:	c48080e7          	jalr	-952(ra) # 7348 <exit>
  }
}
     708:	0001                	nop
     70a:	70ae                	ld	ra,232(sp)
     70c:	740e                	ld	s0,224(sp)
     70e:	616d                	addi	sp,sp,240
     710:	8082                	ret

0000000000000712 <copyinstr3>:

// what if a string argument crosses over the end of last user page?
void
copyinstr3(char *s)
{
     712:	715d                	addi	sp,sp,-80
     714:	e486                	sd	ra,72(sp)
     716:	e0a2                	sd	s0,64(sp)
     718:	0880                	addi	s0,sp,80
     71a:	faa43c23          	sd	a0,-72(s0)
  sbrk(8192);
     71e:	6509                	lui	a0,0x2
     720:	00007097          	auipc	ra,0x7
     724:	cb0080e7          	jalr	-848(ra) # 73d0 <sbrk>
  uint64 top = (uint64) sbrk(0);
     728:	4501                	li	a0,0
     72a:	00007097          	auipc	ra,0x7
     72e:	ca6080e7          	jalr	-858(ra) # 73d0 <sbrk>
     732:	87aa                	mv	a5,a0
     734:	fef43423          	sd	a5,-24(s0)
  if((top % PGSIZE) != 0){
     738:	fe843703          	ld	a4,-24(s0)
     73c:	6785                	lui	a5,0x1
     73e:	17fd                	addi	a5,a5,-1
     740:	8ff9                	and	a5,a5,a4
     742:	c39d                	beqz	a5,768 <copyinstr3+0x56>
    sbrk(PGSIZE - (top % PGSIZE));
     744:	fe843783          	ld	a5,-24(s0)
     748:	2781                	sext.w	a5,a5
     74a:	873e                	mv	a4,a5
     74c:	6785                	lui	a5,0x1
     74e:	17fd                	addi	a5,a5,-1
     750:	8ff9                	and	a5,a5,a4
     752:	2781                	sext.w	a5,a5
     754:	6705                	lui	a4,0x1
     756:	40f707bb          	subw	a5,a4,a5
     75a:	2781                	sext.w	a5,a5
     75c:	2781                	sext.w	a5,a5
     75e:	853e                	mv	a0,a5
     760:	00007097          	auipc	ra,0x7
     764:	c70080e7          	jalr	-912(ra) # 73d0 <sbrk>
  }
  top = (uint64) sbrk(0);
     768:	4501                	li	a0,0
     76a:	00007097          	auipc	ra,0x7
     76e:	c66080e7          	jalr	-922(ra) # 73d0 <sbrk>
     772:	87aa                	mv	a5,a0
     774:	fef43423          	sd	a5,-24(s0)
  if(top % PGSIZE){
     778:	fe843703          	ld	a4,-24(s0)
     77c:	6785                	lui	a5,0x1
     77e:	17fd                	addi	a5,a5,-1
     780:	8ff9                	and	a5,a5,a4
     782:	cf91                	beqz	a5,79e <copyinstr3+0x8c>
    printf("oops\n");
     784:	00008517          	auipc	a0,0x8
     788:	a2c50513          	addi	a0,a0,-1492 # 81b0 <malloc+0x740>
     78c:	00007097          	auipc	ra,0x7
     790:	0f2080e7          	jalr	242(ra) # 787e <printf>
    exit(1);
     794:	4505                	li	a0,1
     796:	00007097          	auipc	ra,0x7
     79a:	bb2080e7          	jalr	-1102(ra) # 7348 <exit>
  }

  char *b = (char *) (top - 1);
     79e:	fe843783          	ld	a5,-24(s0)
     7a2:	17fd                	addi	a5,a5,-1
     7a4:	fef43023          	sd	a5,-32(s0)
  *b = 'x';
     7a8:	fe043783          	ld	a5,-32(s0)
     7ac:	07800713          	li	a4,120
     7b0:	00e78023          	sb	a4,0(a5) # 1000 <truncate3+0x1aa>

  int ret = unlink(b);
     7b4:	fe043503          	ld	a0,-32(s0)
     7b8:	00007097          	auipc	ra,0x7
     7bc:	be0080e7          	jalr	-1056(ra) # 7398 <unlink>
     7c0:	87aa                	mv	a5,a0
     7c2:	fcf42e23          	sw	a5,-36(s0)
  if(ret != -1){
     7c6:	fdc42783          	lw	a5,-36(s0)
     7ca:	0007871b          	sext.w	a4,a5
     7ce:	57fd                	li	a5,-1
     7d0:	02f70463          	beq	a4,a5,7f8 <copyinstr3+0xe6>
    printf("unlink(%s) returned %d, not -1\n", b, ret);
     7d4:	fdc42783          	lw	a5,-36(s0)
     7d8:	863e                	mv	a2,a5
     7da:	fe043583          	ld	a1,-32(s0)
     7de:	00008517          	auipc	a0,0x8
     7e2:	8b250513          	addi	a0,a0,-1870 # 8090 <malloc+0x620>
     7e6:	00007097          	auipc	ra,0x7
     7ea:	098080e7          	jalr	152(ra) # 787e <printf>
    exit(1);
     7ee:	4505                	li	a0,1
     7f0:	00007097          	auipc	ra,0x7
     7f4:	b58080e7          	jalr	-1192(ra) # 7348 <exit>
  }

  int fd = open(b, O_CREATE | O_WRONLY);
     7f8:	20100593          	li	a1,513
     7fc:	fe043503          	ld	a0,-32(s0)
     800:	00007097          	auipc	ra,0x7
     804:	b88080e7          	jalr	-1144(ra) # 7388 <open>
     808:	87aa                	mv	a5,a0
     80a:	fcf42c23          	sw	a5,-40(s0)
  if(fd != -1){
     80e:	fd842783          	lw	a5,-40(s0)
     812:	0007871b          	sext.w	a4,a5
     816:	57fd                	li	a5,-1
     818:	02f70463          	beq	a4,a5,840 <copyinstr3+0x12e>
    printf("open(%s) returned %d, not -1\n", b, fd);
     81c:	fd842783          	lw	a5,-40(s0)
     820:	863e                	mv	a2,a5
     822:	fe043583          	ld	a1,-32(s0)
     826:	00008517          	auipc	a0,0x8
     82a:	88a50513          	addi	a0,a0,-1910 # 80b0 <malloc+0x640>
     82e:	00007097          	auipc	ra,0x7
     832:	050080e7          	jalr	80(ra) # 787e <printf>
    exit(1);
     836:	4505                	li	a0,1
     838:	00007097          	auipc	ra,0x7
     83c:	b10080e7          	jalr	-1264(ra) # 7348 <exit>
  }

  ret = link(b, b);
     840:	fe043583          	ld	a1,-32(s0)
     844:	fe043503          	ld	a0,-32(s0)
     848:	00007097          	auipc	ra,0x7
     84c:	b60080e7          	jalr	-1184(ra) # 73a8 <link>
     850:	87aa                	mv	a5,a0
     852:	fcf42e23          	sw	a5,-36(s0)
  if(ret != -1){
     856:	fdc42783          	lw	a5,-36(s0)
     85a:	0007871b          	sext.w	a4,a5
     85e:	57fd                	li	a5,-1
     860:	02f70663          	beq	a4,a5,88c <copyinstr3+0x17a>
    printf("link(%s, %s) returned %d, not -1\n", b, b, ret);
     864:	fdc42783          	lw	a5,-36(s0)
     868:	86be                	mv	a3,a5
     86a:	fe043603          	ld	a2,-32(s0)
     86e:	fe043583          	ld	a1,-32(s0)
     872:	00008517          	auipc	a0,0x8
     876:	85e50513          	addi	a0,a0,-1954 # 80d0 <malloc+0x660>
     87a:	00007097          	auipc	ra,0x7
     87e:	004080e7          	jalr	4(ra) # 787e <printf>
    exit(1);
     882:	4505                	li	a0,1
     884:	00007097          	auipc	ra,0x7
     888:	ac4080e7          	jalr	-1340(ra) # 7348 <exit>
  }

  char *args[] = { "xx", 0 };
     88c:	00008797          	auipc	a5,0x8
     890:	86c78793          	addi	a5,a5,-1940 # 80f8 <malloc+0x688>
     894:	fcf43423          	sd	a5,-56(s0)
     898:	fc043823          	sd	zero,-48(s0)
  ret = exec(b, args);
     89c:	fc840793          	addi	a5,s0,-56
     8a0:	85be                	mv	a1,a5
     8a2:	fe043503          	ld	a0,-32(s0)
     8a6:	00007097          	auipc	ra,0x7
     8aa:	ada080e7          	jalr	-1318(ra) # 7380 <exec>
     8ae:	87aa                	mv	a5,a0
     8b0:	fcf42e23          	sw	a5,-36(s0)
  if(ret != -1){
     8b4:	fdc42783          	lw	a5,-36(s0)
     8b8:	0007871b          	sext.w	a4,a5
     8bc:	57fd                	li	a5,-1
     8be:	02f70463          	beq	a4,a5,8e6 <copyinstr3+0x1d4>
    printf("exec(%s) returned %d, not -1\n", b, fd);
     8c2:	fd842783          	lw	a5,-40(s0)
     8c6:	863e                	mv	a2,a5
     8c8:	fe043583          	ld	a1,-32(s0)
     8cc:	00008517          	auipc	a0,0x8
     8d0:	83450513          	addi	a0,a0,-1996 # 8100 <malloc+0x690>
     8d4:	00007097          	auipc	ra,0x7
     8d8:	faa080e7          	jalr	-86(ra) # 787e <printf>
    exit(1);
     8dc:	4505                	li	a0,1
     8de:	00007097          	auipc	ra,0x7
     8e2:	a6a080e7          	jalr	-1430(ra) # 7348 <exit>
  }
}
     8e6:	0001                	nop
     8e8:	60a6                	ld	ra,72(sp)
     8ea:	6406                	ld	s0,64(sp)
     8ec:	6161                	addi	sp,sp,80
     8ee:	8082                	ret

00000000000008f0 <rwsbrk>:

// See if the kernel refuses to read/write user memory that the
// application doesn't have anymore, because it returned it.
void
rwsbrk()
{
     8f0:	1101                	addi	sp,sp,-32
     8f2:	ec06                	sd	ra,24(sp)
     8f4:	e822                	sd	s0,16(sp)
     8f6:	1000                	addi	s0,sp,32
  int fd, n;
  
  uint64 a = (uint64) sbrk(8192);
     8f8:	6509                	lui	a0,0x2
     8fa:	00007097          	auipc	ra,0x7
     8fe:	ad6080e7          	jalr	-1322(ra) # 73d0 <sbrk>
     902:	87aa                	mv	a5,a0
     904:	fef43423          	sd	a5,-24(s0)

  if(a == 0xffffffffffffffffLL) {
     908:	fe843703          	ld	a4,-24(s0)
     90c:	57fd                	li	a5,-1
     90e:	00f71f63          	bne	a4,a5,92c <rwsbrk+0x3c>
    printf("sbrk(rwsbrk) failed\n");
     912:	00008517          	auipc	a0,0x8
     916:	8a650513          	addi	a0,a0,-1882 # 81b8 <malloc+0x748>
     91a:	00007097          	auipc	ra,0x7
     91e:	f64080e7          	jalr	-156(ra) # 787e <printf>
    exit(1);
     922:	4505                	li	a0,1
     924:	00007097          	auipc	ra,0x7
     928:	a24080e7          	jalr	-1500(ra) # 7348 <exit>
  }
  
  if ((uint64) sbrk(-8192) ==  0xffffffffffffffffLL) {
     92c:	7579                	lui	a0,0xffffe
     92e:	00007097          	auipc	ra,0x7
     932:	aa2080e7          	jalr	-1374(ra) # 73d0 <sbrk>
     936:	872a                	mv	a4,a0
     938:	57fd                	li	a5,-1
     93a:	00f71f63          	bne	a4,a5,958 <rwsbrk+0x68>
    printf("sbrk(rwsbrk) shrink failed\n");
     93e:	00008517          	auipc	a0,0x8
     942:	89250513          	addi	a0,a0,-1902 # 81d0 <malloc+0x760>
     946:	00007097          	auipc	ra,0x7
     94a:	f38080e7          	jalr	-200(ra) # 787e <printf>
    exit(1);
     94e:	4505                	li	a0,1
     950:	00007097          	auipc	ra,0x7
     954:	9f8080e7          	jalr	-1544(ra) # 7348 <exit>
  }

  fd = open("rwsbrk", O_CREATE|O_WRONLY);
     958:	20100593          	li	a1,513
     95c:	00007517          	auipc	a0,0x7
     960:	2dc50513          	addi	a0,a0,732 # 7c38 <malloc+0x1c8>
     964:	00007097          	auipc	ra,0x7
     968:	a24080e7          	jalr	-1500(ra) # 7388 <open>
     96c:	87aa                	mv	a5,a0
     96e:	fef42223          	sw	a5,-28(s0)
  if(fd < 0){
     972:	fe442783          	lw	a5,-28(s0)
     976:	2781                	sext.w	a5,a5
     978:	0007df63          	bgez	a5,996 <rwsbrk+0xa6>
    printf("open(rwsbrk) failed\n");
     97c:	00008517          	auipc	a0,0x8
     980:	87450513          	addi	a0,a0,-1932 # 81f0 <malloc+0x780>
     984:	00007097          	auipc	ra,0x7
     988:	efa080e7          	jalr	-262(ra) # 787e <printf>
    exit(1);
     98c:	4505                	li	a0,1
     98e:	00007097          	auipc	ra,0x7
     992:	9ba080e7          	jalr	-1606(ra) # 7348 <exit>
  }
  n = write(fd, (void*)(a+4096), 1024);
     996:	fe843703          	ld	a4,-24(s0)
     99a:	6785                	lui	a5,0x1
     99c:	97ba                	add	a5,a5,a4
     99e:	873e                	mv	a4,a5
     9a0:	fe442783          	lw	a5,-28(s0)
     9a4:	40000613          	li	a2,1024
     9a8:	85ba                	mv	a1,a4
     9aa:	853e                	mv	a0,a5
     9ac:	00007097          	auipc	ra,0x7
     9b0:	9bc080e7          	jalr	-1604(ra) # 7368 <write>
     9b4:	87aa                	mv	a5,a0
     9b6:	fef42023          	sw	a5,-32(s0)
  if(n >= 0){
     9ba:	fe042783          	lw	a5,-32(s0)
     9be:	2781                	sext.w	a5,a5
     9c0:	0207c763          	bltz	a5,9ee <rwsbrk+0xfe>
    printf("write(fd, %p, 1024) returned %d, not -1\n", a+4096, n);
     9c4:	fe843703          	ld	a4,-24(s0)
     9c8:	6785                	lui	a5,0x1
     9ca:	97ba                	add	a5,a5,a4
     9cc:	fe042703          	lw	a4,-32(s0)
     9d0:	863a                	mv	a2,a4
     9d2:	85be                	mv	a1,a5
     9d4:	00008517          	auipc	a0,0x8
     9d8:	83450513          	addi	a0,a0,-1996 # 8208 <malloc+0x798>
     9dc:	00007097          	auipc	ra,0x7
     9e0:	ea2080e7          	jalr	-350(ra) # 787e <printf>
    exit(1);
     9e4:	4505                	li	a0,1
     9e6:	00007097          	auipc	ra,0x7
     9ea:	962080e7          	jalr	-1694(ra) # 7348 <exit>
  }
  close(fd);
     9ee:	fe442783          	lw	a5,-28(s0)
     9f2:	853e                	mv	a0,a5
     9f4:	00007097          	auipc	ra,0x7
     9f8:	97c080e7          	jalr	-1668(ra) # 7370 <close>
  unlink("rwsbrk");
     9fc:	00007517          	auipc	a0,0x7
     a00:	23c50513          	addi	a0,a0,572 # 7c38 <malloc+0x1c8>
     a04:	00007097          	auipc	ra,0x7
     a08:	994080e7          	jalr	-1644(ra) # 7398 <unlink>

  fd = open("README", O_RDONLY);
     a0c:	4581                	li	a1,0
     a0e:	00007517          	auipc	a0,0x7
     a12:	5c250513          	addi	a0,a0,1474 # 7fd0 <malloc+0x560>
     a16:	00007097          	auipc	ra,0x7
     a1a:	972080e7          	jalr	-1678(ra) # 7388 <open>
     a1e:	87aa                	mv	a5,a0
     a20:	fef42223          	sw	a5,-28(s0)
  if(fd < 0){
     a24:	fe442783          	lw	a5,-28(s0)
     a28:	2781                	sext.w	a5,a5
     a2a:	0007df63          	bgez	a5,a48 <rwsbrk+0x158>
    printf("open(rwsbrk) failed\n");
     a2e:	00007517          	auipc	a0,0x7
     a32:	7c250513          	addi	a0,a0,1986 # 81f0 <malloc+0x780>
     a36:	00007097          	auipc	ra,0x7
     a3a:	e48080e7          	jalr	-440(ra) # 787e <printf>
    exit(1);
     a3e:	4505                	li	a0,1
     a40:	00007097          	auipc	ra,0x7
     a44:	908080e7          	jalr	-1784(ra) # 7348 <exit>
  }
  n = read(fd, (void*)(a+4096), 10);
     a48:	fe843703          	ld	a4,-24(s0)
     a4c:	6785                	lui	a5,0x1
     a4e:	97ba                	add	a5,a5,a4
     a50:	873e                	mv	a4,a5
     a52:	fe442783          	lw	a5,-28(s0)
     a56:	4629                	li	a2,10
     a58:	85ba                	mv	a1,a4
     a5a:	853e                	mv	a0,a5
     a5c:	00007097          	auipc	ra,0x7
     a60:	904080e7          	jalr	-1788(ra) # 7360 <read>
     a64:	87aa                	mv	a5,a0
     a66:	fef42023          	sw	a5,-32(s0)
  if(n >= 0){
     a6a:	fe042783          	lw	a5,-32(s0)
     a6e:	2781                	sext.w	a5,a5
     a70:	0207c763          	bltz	a5,a9e <rwsbrk+0x1ae>
    printf("read(fd, %p, 10) returned %d, not -1\n", a+4096, n);
     a74:	fe843703          	ld	a4,-24(s0)
     a78:	6785                	lui	a5,0x1
     a7a:	97ba                	add	a5,a5,a4
     a7c:	fe042703          	lw	a4,-32(s0)
     a80:	863a                	mv	a2,a4
     a82:	85be                	mv	a1,a5
     a84:	00007517          	auipc	a0,0x7
     a88:	7b450513          	addi	a0,a0,1972 # 8238 <malloc+0x7c8>
     a8c:	00007097          	auipc	ra,0x7
     a90:	df2080e7          	jalr	-526(ra) # 787e <printf>
    exit(1);
     a94:	4505                	li	a0,1
     a96:	00007097          	auipc	ra,0x7
     a9a:	8b2080e7          	jalr	-1870(ra) # 7348 <exit>
  }
  close(fd);
     a9e:	fe442783          	lw	a5,-28(s0)
     aa2:	853e                	mv	a0,a5
     aa4:	00007097          	auipc	ra,0x7
     aa8:	8cc080e7          	jalr	-1844(ra) # 7370 <close>
  
  exit(0);
     aac:	4501                	li	a0,0
     aae:	00007097          	auipc	ra,0x7
     ab2:	89a080e7          	jalr	-1894(ra) # 7348 <exit>

0000000000000ab6 <truncate1>:
}

// test O_TRUNC.
void
truncate1(char *s)
{
     ab6:	715d                	addi	sp,sp,-80
     ab8:	e486                	sd	ra,72(sp)
     aba:	e0a2                	sd	s0,64(sp)
     abc:	0880                	addi	s0,sp,80
     abe:	faa43c23          	sd	a0,-72(s0)
  char buf[32];
  
  unlink("truncfile");
     ac2:	00007517          	auipc	a0,0x7
     ac6:	79e50513          	addi	a0,a0,1950 # 8260 <malloc+0x7f0>
     aca:	00007097          	auipc	ra,0x7
     ace:	8ce080e7          	jalr	-1842(ra) # 7398 <unlink>
  int fd1 = open("truncfile", O_CREATE|O_WRONLY|O_TRUNC);
     ad2:	60100593          	li	a1,1537
     ad6:	00007517          	auipc	a0,0x7
     ada:	78a50513          	addi	a0,a0,1930 # 8260 <malloc+0x7f0>
     ade:	00007097          	auipc	ra,0x7
     ae2:	8aa080e7          	jalr	-1878(ra) # 7388 <open>
     ae6:	87aa                	mv	a5,a0
     ae8:	fef42623          	sw	a5,-20(s0)
  write(fd1, "abcd", 4);
     aec:	fec42783          	lw	a5,-20(s0)
     af0:	4611                	li	a2,4
     af2:	00007597          	auipc	a1,0x7
     af6:	77e58593          	addi	a1,a1,1918 # 8270 <malloc+0x800>
     afa:	853e                	mv	a0,a5
     afc:	00007097          	auipc	ra,0x7
     b00:	86c080e7          	jalr	-1940(ra) # 7368 <write>
  close(fd1);
     b04:	fec42783          	lw	a5,-20(s0)
     b08:	853e                	mv	a0,a5
     b0a:	00007097          	auipc	ra,0x7
     b0e:	866080e7          	jalr	-1946(ra) # 7370 <close>

  int fd2 = open("truncfile", O_RDONLY);
     b12:	4581                	li	a1,0
     b14:	00007517          	auipc	a0,0x7
     b18:	74c50513          	addi	a0,a0,1868 # 8260 <malloc+0x7f0>
     b1c:	00007097          	auipc	ra,0x7
     b20:	86c080e7          	jalr	-1940(ra) # 7388 <open>
     b24:	87aa                	mv	a5,a0
     b26:	fef42423          	sw	a5,-24(s0)
  int n = read(fd2, buf, sizeof(buf));
     b2a:	fc040713          	addi	a4,s0,-64
     b2e:	fe842783          	lw	a5,-24(s0)
     b32:	02000613          	li	a2,32
     b36:	85ba                	mv	a1,a4
     b38:	853e                	mv	a0,a5
     b3a:	00007097          	auipc	ra,0x7
     b3e:	826080e7          	jalr	-2010(ra) # 7360 <read>
     b42:	87aa                	mv	a5,a0
     b44:	fef42223          	sw	a5,-28(s0)
  if(n != 4){
     b48:	fe442783          	lw	a5,-28(s0)
     b4c:	0007871b          	sext.w	a4,a5
     b50:	4791                	li	a5,4
     b52:	02f70463          	beq	a4,a5,b7a <truncate1+0xc4>
    printf("%s: read %d bytes, wanted 4\n", s, n);
     b56:	fe442783          	lw	a5,-28(s0)
     b5a:	863e                	mv	a2,a5
     b5c:	fb843583          	ld	a1,-72(s0)
     b60:	00007517          	auipc	a0,0x7
     b64:	71850513          	addi	a0,a0,1816 # 8278 <malloc+0x808>
     b68:	00007097          	auipc	ra,0x7
     b6c:	d16080e7          	jalr	-746(ra) # 787e <printf>
    exit(1);
     b70:	4505                	li	a0,1
     b72:	00006097          	auipc	ra,0x6
     b76:	7d6080e7          	jalr	2006(ra) # 7348 <exit>
  }

  fd1 = open("truncfile", O_WRONLY|O_TRUNC);
     b7a:	40100593          	li	a1,1025
     b7e:	00007517          	auipc	a0,0x7
     b82:	6e250513          	addi	a0,a0,1762 # 8260 <malloc+0x7f0>
     b86:	00007097          	auipc	ra,0x7
     b8a:	802080e7          	jalr	-2046(ra) # 7388 <open>
     b8e:	87aa                	mv	a5,a0
     b90:	fef42623          	sw	a5,-20(s0)

  int fd3 = open("truncfile", O_RDONLY);
     b94:	4581                	li	a1,0
     b96:	00007517          	auipc	a0,0x7
     b9a:	6ca50513          	addi	a0,a0,1738 # 8260 <malloc+0x7f0>
     b9e:	00006097          	auipc	ra,0x6
     ba2:	7ea080e7          	jalr	2026(ra) # 7388 <open>
     ba6:	87aa                	mv	a5,a0
     ba8:	fef42023          	sw	a5,-32(s0)
  n = read(fd3, buf, sizeof(buf));
     bac:	fc040713          	addi	a4,s0,-64
     bb0:	fe042783          	lw	a5,-32(s0)
     bb4:	02000613          	li	a2,32
     bb8:	85ba                	mv	a1,a4
     bba:	853e                	mv	a0,a5
     bbc:	00006097          	auipc	ra,0x6
     bc0:	7a4080e7          	jalr	1956(ra) # 7360 <read>
     bc4:	87aa                	mv	a5,a0
     bc6:	fef42223          	sw	a5,-28(s0)
  if(n != 0){
     bca:	fe442783          	lw	a5,-28(s0)
     bce:	2781                	sext.w	a5,a5
     bd0:	cf95                	beqz	a5,c0c <truncate1+0x156>
    printf("aaa fd3=%d\n", fd3);
     bd2:	fe042783          	lw	a5,-32(s0)
     bd6:	85be                	mv	a1,a5
     bd8:	00007517          	auipc	a0,0x7
     bdc:	6c050513          	addi	a0,a0,1728 # 8298 <malloc+0x828>
     be0:	00007097          	auipc	ra,0x7
     be4:	c9e080e7          	jalr	-866(ra) # 787e <printf>
    printf("%s: read %d bytes, wanted 0\n", s, n);
     be8:	fe442783          	lw	a5,-28(s0)
     bec:	863e                	mv	a2,a5
     bee:	fb843583          	ld	a1,-72(s0)
     bf2:	00007517          	auipc	a0,0x7
     bf6:	6b650513          	addi	a0,a0,1718 # 82a8 <malloc+0x838>
     bfa:	00007097          	auipc	ra,0x7
     bfe:	c84080e7          	jalr	-892(ra) # 787e <printf>
    exit(1);
     c02:	4505                	li	a0,1
     c04:	00006097          	auipc	ra,0x6
     c08:	744080e7          	jalr	1860(ra) # 7348 <exit>
  }

  n = read(fd2, buf, sizeof(buf));
     c0c:	fc040713          	addi	a4,s0,-64
     c10:	fe842783          	lw	a5,-24(s0)
     c14:	02000613          	li	a2,32
     c18:	85ba                	mv	a1,a4
     c1a:	853e                	mv	a0,a5
     c1c:	00006097          	auipc	ra,0x6
     c20:	744080e7          	jalr	1860(ra) # 7360 <read>
     c24:	87aa                	mv	a5,a0
     c26:	fef42223          	sw	a5,-28(s0)
  if(n != 0){
     c2a:	fe442783          	lw	a5,-28(s0)
     c2e:	2781                	sext.w	a5,a5
     c30:	cf95                	beqz	a5,c6c <truncate1+0x1b6>
    printf("bbb fd2=%d\n", fd2);
     c32:	fe842783          	lw	a5,-24(s0)
     c36:	85be                	mv	a1,a5
     c38:	00007517          	auipc	a0,0x7
     c3c:	69050513          	addi	a0,a0,1680 # 82c8 <malloc+0x858>
     c40:	00007097          	auipc	ra,0x7
     c44:	c3e080e7          	jalr	-962(ra) # 787e <printf>
    printf("%s: read %d bytes, wanted 0\n", s, n);
     c48:	fe442783          	lw	a5,-28(s0)
     c4c:	863e                	mv	a2,a5
     c4e:	fb843583          	ld	a1,-72(s0)
     c52:	00007517          	auipc	a0,0x7
     c56:	65650513          	addi	a0,a0,1622 # 82a8 <malloc+0x838>
     c5a:	00007097          	auipc	ra,0x7
     c5e:	c24080e7          	jalr	-988(ra) # 787e <printf>
    exit(1);
     c62:	4505                	li	a0,1
     c64:	00006097          	auipc	ra,0x6
     c68:	6e4080e7          	jalr	1764(ra) # 7348 <exit>
  }
  
  write(fd1, "abcdef", 6);
     c6c:	fec42783          	lw	a5,-20(s0)
     c70:	4619                	li	a2,6
     c72:	00007597          	auipc	a1,0x7
     c76:	66658593          	addi	a1,a1,1638 # 82d8 <malloc+0x868>
     c7a:	853e                	mv	a0,a5
     c7c:	00006097          	auipc	ra,0x6
     c80:	6ec080e7          	jalr	1772(ra) # 7368 <write>

  n = read(fd3, buf, sizeof(buf));
     c84:	fc040713          	addi	a4,s0,-64
     c88:	fe042783          	lw	a5,-32(s0)
     c8c:	02000613          	li	a2,32
     c90:	85ba                	mv	a1,a4
     c92:	853e                	mv	a0,a5
     c94:	00006097          	auipc	ra,0x6
     c98:	6cc080e7          	jalr	1740(ra) # 7360 <read>
     c9c:	87aa                	mv	a5,a0
     c9e:	fef42223          	sw	a5,-28(s0)
  if(n != 6){
     ca2:	fe442783          	lw	a5,-28(s0)
     ca6:	0007871b          	sext.w	a4,a5
     caa:	4799                	li	a5,6
     cac:	02f70463          	beq	a4,a5,cd4 <truncate1+0x21e>
    printf("%s: read %d bytes, wanted 6\n", s, n);
     cb0:	fe442783          	lw	a5,-28(s0)
     cb4:	863e                	mv	a2,a5
     cb6:	fb843583          	ld	a1,-72(s0)
     cba:	00007517          	auipc	a0,0x7
     cbe:	62650513          	addi	a0,a0,1574 # 82e0 <malloc+0x870>
     cc2:	00007097          	auipc	ra,0x7
     cc6:	bbc080e7          	jalr	-1092(ra) # 787e <printf>
    exit(1);
     cca:	4505                	li	a0,1
     ccc:	00006097          	auipc	ra,0x6
     cd0:	67c080e7          	jalr	1660(ra) # 7348 <exit>
  }

  n = read(fd2, buf, sizeof(buf));
     cd4:	fc040713          	addi	a4,s0,-64
     cd8:	fe842783          	lw	a5,-24(s0)
     cdc:	02000613          	li	a2,32
     ce0:	85ba                	mv	a1,a4
     ce2:	853e                	mv	a0,a5
     ce4:	00006097          	auipc	ra,0x6
     ce8:	67c080e7          	jalr	1660(ra) # 7360 <read>
     cec:	87aa                	mv	a5,a0
     cee:	fef42223          	sw	a5,-28(s0)
  if(n != 2){
     cf2:	fe442783          	lw	a5,-28(s0)
     cf6:	0007871b          	sext.w	a4,a5
     cfa:	4789                	li	a5,2
     cfc:	02f70463          	beq	a4,a5,d24 <truncate1+0x26e>
    printf("%s: read %d bytes, wanted 2\n", s, n);
     d00:	fe442783          	lw	a5,-28(s0)
     d04:	863e                	mv	a2,a5
     d06:	fb843583          	ld	a1,-72(s0)
     d0a:	00007517          	auipc	a0,0x7
     d0e:	5f650513          	addi	a0,a0,1526 # 8300 <malloc+0x890>
     d12:	00007097          	auipc	ra,0x7
     d16:	b6c080e7          	jalr	-1172(ra) # 787e <printf>
    exit(1);
     d1a:	4505                	li	a0,1
     d1c:	00006097          	auipc	ra,0x6
     d20:	62c080e7          	jalr	1580(ra) # 7348 <exit>
  }

  unlink("truncfile");
     d24:	00007517          	auipc	a0,0x7
     d28:	53c50513          	addi	a0,a0,1340 # 8260 <malloc+0x7f0>
     d2c:	00006097          	auipc	ra,0x6
     d30:	66c080e7          	jalr	1644(ra) # 7398 <unlink>

  close(fd1);
     d34:	fec42783          	lw	a5,-20(s0)
     d38:	853e                	mv	a0,a5
     d3a:	00006097          	auipc	ra,0x6
     d3e:	636080e7          	jalr	1590(ra) # 7370 <close>
  close(fd2);
     d42:	fe842783          	lw	a5,-24(s0)
     d46:	853e                	mv	a0,a5
     d48:	00006097          	auipc	ra,0x6
     d4c:	628080e7          	jalr	1576(ra) # 7370 <close>
  close(fd3);
     d50:	fe042783          	lw	a5,-32(s0)
     d54:	853e                	mv	a0,a5
     d56:	00006097          	auipc	ra,0x6
     d5a:	61a080e7          	jalr	1562(ra) # 7370 <close>
}
     d5e:	0001                	nop
     d60:	60a6                	ld	ra,72(sp)
     d62:	6406                	ld	s0,64(sp)
     d64:	6161                	addi	sp,sp,80
     d66:	8082                	ret

0000000000000d68 <truncate2>:
// this causes a write at an offset beyond the end of the file.
// such writes fail on xv6 (unlike POSIX) but at least
// they don't crash.
void
truncate2(char *s)
{
     d68:	7179                	addi	sp,sp,-48
     d6a:	f406                	sd	ra,40(sp)
     d6c:	f022                	sd	s0,32(sp)
     d6e:	1800                	addi	s0,sp,48
     d70:	fca43c23          	sd	a0,-40(s0)
  unlink("truncfile");
     d74:	00007517          	auipc	a0,0x7
     d78:	4ec50513          	addi	a0,a0,1260 # 8260 <malloc+0x7f0>
     d7c:	00006097          	auipc	ra,0x6
     d80:	61c080e7          	jalr	1564(ra) # 7398 <unlink>

  int fd1 = open("truncfile", O_CREATE|O_TRUNC|O_WRONLY);
     d84:	60100593          	li	a1,1537
     d88:	00007517          	auipc	a0,0x7
     d8c:	4d850513          	addi	a0,a0,1240 # 8260 <malloc+0x7f0>
     d90:	00006097          	auipc	ra,0x6
     d94:	5f8080e7          	jalr	1528(ra) # 7388 <open>
     d98:	87aa                	mv	a5,a0
     d9a:	fef42623          	sw	a5,-20(s0)
  write(fd1, "abcd", 4);
     d9e:	fec42783          	lw	a5,-20(s0)
     da2:	4611                	li	a2,4
     da4:	00007597          	auipc	a1,0x7
     da8:	4cc58593          	addi	a1,a1,1228 # 8270 <malloc+0x800>
     dac:	853e                	mv	a0,a5
     dae:	00006097          	auipc	ra,0x6
     db2:	5ba080e7          	jalr	1466(ra) # 7368 <write>

  int fd2 = open("truncfile", O_TRUNC|O_WRONLY);
     db6:	40100593          	li	a1,1025
     dba:	00007517          	auipc	a0,0x7
     dbe:	4a650513          	addi	a0,a0,1190 # 8260 <malloc+0x7f0>
     dc2:	00006097          	auipc	ra,0x6
     dc6:	5c6080e7          	jalr	1478(ra) # 7388 <open>
     dca:	87aa                	mv	a5,a0
     dcc:	fef42423          	sw	a5,-24(s0)

  int n = write(fd1, "x", 1);
     dd0:	fec42783          	lw	a5,-20(s0)
     dd4:	4605                	li	a2,1
     dd6:	00007597          	auipc	a1,0x7
     dda:	24a58593          	addi	a1,a1,586 # 8020 <malloc+0x5b0>
     dde:	853e                	mv	a0,a5
     de0:	00006097          	auipc	ra,0x6
     de4:	588080e7          	jalr	1416(ra) # 7368 <write>
     de8:	87aa                	mv	a5,a0
     dea:	fef42223          	sw	a5,-28(s0)
  if(n != -1){
     dee:	fe442783          	lw	a5,-28(s0)
     df2:	0007871b          	sext.w	a4,a5
     df6:	57fd                	li	a5,-1
     df8:	02f70463          	beq	a4,a5,e20 <truncate2+0xb8>
    printf("%s: write returned %d, expected -1\n", s, n);
     dfc:	fe442783          	lw	a5,-28(s0)
     e00:	863e                	mv	a2,a5
     e02:	fd843583          	ld	a1,-40(s0)
     e06:	00007517          	auipc	a0,0x7
     e0a:	51a50513          	addi	a0,a0,1306 # 8320 <malloc+0x8b0>
     e0e:	00007097          	auipc	ra,0x7
     e12:	a70080e7          	jalr	-1424(ra) # 787e <printf>
    exit(1);
     e16:	4505                	li	a0,1
     e18:	00006097          	auipc	ra,0x6
     e1c:	530080e7          	jalr	1328(ra) # 7348 <exit>
  }

  unlink("truncfile");
     e20:	00007517          	auipc	a0,0x7
     e24:	44050513          	addi	a0,a0,1088 # 8260 <malloc+0x7f0>
     e28:	00006097          	auipc	ra,0x6
     e2c:	570080e7          	jalr	1392(ra) # 7398 <unlink>
  close(fd1);
     e30:	fec42783          	lw	a5,-20(s0)
     e34:	853e                	mv	a0,a5
     e36:	00006097          	auipc	ra,0x6
     e3a:	53a080e7          	jalr	1338(ra) # 7370 <close>
  close(fd2);
     e3e:	fe842783          	lw	a5,-24(s0)
     e42:	853e                	mv	a0,a5
     e44:	00006097          	auipc	ra,0x6
     e48:	52c080e7          	jalr	1324(ra) # 7370 <close>
}
     e4c:	0001                	nop
     e4e:	70a2                	ld	ra,40(sp)
     e50:	7402                	ld	s0,32(sp)
     e52:	6145                	addi	sp,sp,48
     e54:	8082                	ret

0000000000000e56 <truncate3>:

void
truncate3(char *s)
{
     e56:	711d                	addi	sp,sp,-96
     e58:	ec86                	sd	ra,88(sp)
     e5a:	e8a2                	sd	s0,80(sp)
     e5c:	1080                	addi	s0,sp,96
     e5e:	faa43423          	sd	a0,-88(s0)
  int pid, xstatus;

  close(open("truncfile", O_CREATE|O_TRUNC|O_WRONLY));
     e62:	60100593          	li	a1,1537
     e66:	00007517          	auipc	a0,0x7
     e6a:	3fa50513          	addi	a0,a0,1018 # 8260 <malloc+0x7f0>
     e6e:	00006097          	auipc	ra,0x6
     e72:	51a080e7          	jalr	1306(ra) # 7388 <open>
     e76:	87aa                	mv	a5,a0
     e78:	853e                	mv	a0,a5
     e7a:	00006097          	auipc	ra,0x6
     e7e:	4f6080e7          	jalr	1270(ra) # 7370 <close>
  
  pid = fork();
     e82:	00006097          	auipc	ra,0x6
     e86:	4be080e7          	jalr	1214(ra) # 7340 <fork>
     e8a:	87aa                	mv	a5,a0
     e8c:	fef42223          	sw	a5,-28(s0)
  if(pid < 0){
     e90:	fe442783          	lw	a5,-28(s0)
     e94:	2781                	sext.w	a5,a5
     e96:	0207d163          	bgez	a5,eb8 <truncate3+0x62>
    printf("%s: fork failed\n", s);
     e9a:	fa843583          	ld	a1,-88(s0)
     e9e:	00007517          	auipc	a0,0x7
     ea2:	4aa50513          	addi	a0,a0,1194 # 8348 <malloc+0x8d8>
     ea6:	00007097          	auipc	ra,0x7
     eaa:	9d8080e7          	jalr	-1576(ra) # 787e <printf>
    exit(1);
     eae:	4505                	li	a0,1
     eb0:	00006097          	auipc	ra,0x6
     eb4:	498080e7          	jalr	1176(ra) # 7348 <exit>
  }

  if(pid == 0){
     eb8:	fe442783          	lw	a5,-28(s0)
     ebc:	2781                	sext.w	a5,a5
     ebe:	10079563          	bnez	a5,fc8 <truncate3+0x172>
    for(int i = 0; i < 100; i++){
     ec2:	fe042623          	sw	zero,-20(s0)
     ec6:	a0e5                	j	fae <truncate3+0x158>
      char buf[32];
      int fd = open("truncfile", O_WRONLY);
     ec8:	4585                	li	a1,1
     eca:	00007517          	auipc	a0,0x7
     ece:	39650513          	addi	a0,a0,918 # 8260 <malloc+0x7f0>
     ed2:	00006097          	auipc	ra,0x6
     ed6:	4b6080e7          	jalr	1206(ra) # 7388 <open>
     eda:	87aa                	mv	a5,a0
     edc:	fcf42c23          	sw	a5,-40(s0)
      if(fd < 0){
     ee0:	fd842783          	lw	a5,-40(s0)
     ee4:	2781                	sext.w	a5,a5
     ee6:	0207d163          	bgez	a5,f08 <truncate3+0xb2>
        printf("%s: open failed\n", s);
     eea:	fa843583          	ld	a1,-88(s0)
     eee:	00007517          	auipc	a0,0x7
     ef2:	47250513          	addi	a0,a0,1138 # 8360 <malloc+0x8f0>
     ef6:	00007097          	auipc	ra,0x7
     efa:	988080e7          	jalr	-1656(ra) # 787e <printf>
        exit(1);
     efe:	4505                	li	a0,1
     f00:	00006097          	auipc	ra,0x6
     f04:	448080e7          	jalr	1096(ra) # 7348 <exit>
      }
      int n = write(fd, "1234567890", 10);
     f08:	fd842783          	lw	a5,-40(s0)
     f0c:	4629                	li	a2,10
     f0e:	00007597          	auipc	a1,0x7
     f12:	46a58593          	addi	a1,a1,1130 # 8378 <malloc+0x908>
     f16:	853e                	mv	a0,a5
     f18:	00006097          	auipc	ra,0x6
     f1c:	450080e7          	jalr	1104(ra) # 7368 <write>
     f20:	87aa                	mv	a5,a0
     f22:	fcf42a23          	sw	a5,-44(s0)
      if(n != 10){
     f26:	fd442783          	lw	a5,-44(s0)
     f2a:	0007871b          	sext.w	a4,a5
     f2e:	47a9                	li	a5,10
     f30:	02f70463          	beq	a4,a5,f58 <truncate3+0x102>
        printf("%s: write got %d, expected 10\n", s, n);
     f34:	fd442783          	lw	a5,-44(s0)
     f38:	863e                	mv	a2,a5
     f3a:	fa843583          	ld	a1,-88(s0)
     f3e:	00007517          	auipc	a0,0x7
     f42:	44a50513          	addi	a0,a0,1098 # 8388 <malloc+0x918>
     f46:	00007097          	auipc	ra,0x7
     f4a:	938080e7          	jalr	-1736(ra) # 787e <printf>
        exit(1);
     f4e:	4505                	li	a0,1
     f50:	00006097          	auipc	ra,0x6
     f54:	3f8080e7          	jalr	1016(ra) # 7348 <exit>
      }
      close(fd);
     f58:	fd842783          	lw	a5,-40(s0)
     f5c:	853e                	mv	a0,a5
     f5e:	00006097          	auipc	ra,0x6
     f62:	412080e7          	jalr	1042(ra) # 7370 <close>
      fd = open("truncfile", O_RDONLY);
     f66:	4581                	li	a1,0
     f68:	00007517          	auipc	a0,0x7
     f6c:	2f850513          	addi	a0,a0,760 # 8260 <malloc+0x7f0>
     f70:	00006097          	auipc	ra,0x6
     f74:	418080e7          	jalr	1048(ra) # 7388 <open>
     f78:	87aa                	mv	a5,a0
     f7a:	fcf42c23          	sw	a5,-40(s0)
      read(fd, buf, sizeof(buf));
     f7e:	fb040713          	addi	a4,s0,-80
     f82:	fd842783          	lw	a5,-40(s0)
     f86:	02000613          	li	a2,32
     f8a:	85ba                	mv	a1,a4
     f8c:	853e                	mv	a0,a5
     f8e:	00006097          	auipc	ra,0x6
     f92:	3d2080e7          	jalr	978(ra) # 7360 <read>
      close(fd);
     f96:	fd842783          	lw	a5,-40(s0)
     f9a:	853e                	mv	a0,a5
     f9c:	00006097          	auipc	ra,0x6
     fa0:	3d4080e7          	jalr	980(ra) # 7370 <close>
    for(int i = 0; i < 100; i++){
     fa4:	fec42783          	lw	a5,-20(s0)
     fa8:	2785                	addiw	a5,a5,1
     faa:	fef42623          	sw	a5,-20(s0)
     fae:	fec42783          	lw	a5,-20(s0)
     fb2:	0007871b          	sext.w	a4,a5
     fb6:	06300793          	li	a5,99
     fba:	f0e7d7e3          	bge	a5,a4,ec8 <truncate3+0x72>
    }
    exit(0);
     fbe:	4501                	li	a0,0
     fc0:	00006097          	auipc	ra,0x6
     fc4:	388080e7          	jalr	904(ra) # 7348 <exit>
  }

  for(int i = 0; i < 150; i++){
     fc8:	fe042423          	sw	zero,-24(s0)
     fcc:	a075                	j	1078 <truncate3+0x222>
    int fd = open("truncfile", O_CREATE|O_WRONLY|O_TRUNC);
     fce:	60100593          	li	a1,1537
     fd2:	00007517          	auipc	a0,0x7
     fd6:	28e50513          	addi	a0,a0,654 # 8260 <malloc+0x7f0>
     fda:	00006097          	auipc	ra,0x6
     fde:	3ae080e7          	jalr	942(ra) # 7388 <open>
     fe2:	87aa                	mv	a5,a0
     fe4:	fef42023          	sw	a5,-32(s0)
    if(fd < 0){
     fe8:	fe042783          	lw	a5,-32(s0)
     fec:	2781                	sext.w	a5,a5
     fee:	0207d163          	bgez	a5,1010 <truncate3+0x1ba>
      printf("%s: open failed\n", s);
     ff2:	fa843583          	ld	a1,-88(s0)
     ff6:	00007517          	auipc	a0,0x7
     ffa:	36a50513          	addi	a0,a0,874 # 8360 <malloc+0x8f0>
     ffe:	00007097          	auipc	ra,0x7
    1002:	880080e7          	jalr	-1920(ra) # 787e <printf>
      exit(1);
    1006:	4505                	li	a0,1
    1008:	00006097          	auipc	ra,0x6
    100c:	340080e7          	jalr	832(ra) # 7348 <exit>
    }
    int n = write(fd, "xxx", 3);
    1010:	fe042783          	lw	a5,-32(s0)
    1014:	460d                	li	a2,3
    1016:	00007597          	auipc	a1,0x7
    101a:	39258593          	addi	a1,a1,914 # 83a8 <malloc+0x938>
    101e:	853e                	mv	a0,a5
    1020:	00006097          	auipc	ra,0x6
    1024:	348080e7          	jalr	840(ra) # 7368 <write>
    1028:	87aa                	mv	a5,a0
    102a:	fcf42e23          	sw	a5,-36(s0)
    if(n != 3){
    102e:	fdc42783          	lw	a5,-36(s0)
    1032:	0007871b          	sext.w	a4,a5
    1036:	478d                	li	a5,3
    1038:	02f70463          	beq	a4,a5,1060 <truncate3+0x20a>
      printf("%s: write got %d, expected 3\n", s, n);
    103c:	fdc42783          	lw	a5,-36(s0)
    1040:	863e                	mv	a2,a5
    1042:	fa843583          	ld	a1,-88(s0)
    1046:	00007517          	auipc	a0,0x7
    104a:	36a50513          	addi	a0,a0,874 # 83b0 <malloc+0x940>
    104e:	00007097          	auipc	ra,0x7
    1052:	830080e7          	jalr	-2000(ra) # 787e <printf>
      exit(1);
    1056:	4505                	li	a0,1
    1058:	00006097          	auipc	ra,0x6
    105c:	2f0080e7          	jalr	752(ra) # 7348 <exit>
    }
    close(fd);
    1060:	fe042783          	lw	a5,-32(s0)
    1064:	853e                	mv	a0,a5
    1066:	00006097          	auipc	ra,0x6
    106a:	30a080e7          	jalr	778(ra) # 7370 <close>
  for(int i = 0; i < 150; i++){
    106e:	fe842783          	lw	a5,-24(s0)
    1072:	2785                	addiw	a5,a5,1
    1074:	fef42423          	sw	a5,-24(s0)
    1078:	fe842783          	lw	a5,-24(s0)
    107c:	0007871b          	sext.w	a4,a5
    1080:	09500793          	li	a5,149
    1084:	f4e7d5e3          	bge	a5,a4,fce <truncate3+0x178>
  }

  wait(&xstatus);
    1088:	fd040793          	addi	a5,s0,-48
    108c:	853e                	mv	a0,a5
    108e:	00006097          	auipc	ra,0x6
    1092:	2c2080e7          	jalr	706(ra) # 7350 <wait>
  unlink("truncfile");
    1096:	00007517          	auipc	a0,0x7
    109a:	1ca50513          	addi	a0,a0,458 # 8260 <malloc+0x7f0>
    109e:	00006097          	auipc	ra,0x6
    10a2:	2fa080e7          	jalr	762(ra) # 7398 <unlink>
  exit(xstatus);
    10a6:	fd042783          	lw	a5,-48(s0)
    10aa:	853e                	mv	a0,a5
    10ac:	00006097          	auipc	ra,0x6
    10b0:	29c080e7          	jalr	668(ra) # 7348 <exit>

00000000000010b4 <iputtest>:
  

// does chdir() call iput(p->cwd) in a transaction?
void
iputtest(char *s)
{
    10b4:	1101                	addi	sp,sp,-32
    10b6:	ec06                	sd	ra,24(sp)
    10b8:	e822                	sd	s0,16(sp)
    10ba:	1000                	addi	s0,sp,32
    10bc:	fea43423          	sd	a0,-24(s0)
  if(mkdir("iputdir") < 0){
    10c0:	00007517          	auipc	a0,0x7
    10c4:	31050513          	addi	a0,a0,784 # 83d0 <malloc+0x960>
    10c8:	00006097          	auipc	ra,0x6
    10cc:	2e8080e7          	jalr	744(ra) # 73b0 <mkdir>
    10d0:	87aa                	mv	a5,a0
    10d2:	0207d163          	bgez	a5,10f4 <iputtest+0x40>
    printf("%s: mkdir failed\n", s);
    10d6:	fe843583          	ld	a1,-24(s0)
    10da:	00007517          	auipc	a0,0x7
    10de:	2fe50513          	addi	a0,a0,766 # 83d8 <malloc+0x968>
    10e2:	00006097          	auipc	ra,0x6
    10e6:	79c080e7          	jalr	1948(ra) # 787e <printf>
    exit(1);
    10ea:	4505                	li	a0,1
    10ec:	00006097          	auipc	ra,0x6
    10f0:	25c080e7          	jalr	604(ra) # 7348 <exit>
  }
  if(chdir("iputdir") < 0){
    10f4:	00007517          	auipc	a0,0x7
    10f8:	2dc50513          	addi	a0,a0,732 # 83d0 <malloc+0x960>
    10fc:	00006097          	auipc	ra,0x6
    1100:	2bc080e7          	jalr	700(ra) # 73b8 <chdir>
    1104:	87aa                	mv	a5,a0
    1106:	0207d163          	bgez	a5,1128 <iputtest+0x74>
    printf("%s: chdir iputdir failed\n", s);
    110a:	fe843583          	ld	a1,-24(s0)
    110e:	00007517          	auipc	a0,0x7
    1112:	2e250513          	addi	a0,a0,738 # 83f0 <malloc+0x980>
    1116:	00006097          	auipc	ra,0x6
    111a:	768080e7          	jalr	1896(ra) # 787e <printf>
    exit(1);
    111e:	4505                	li	a0,1
    1120:	00006097          	auipc	ra,0x6
    1124:	228080e7          	jalr	552(ra) # 7348 <exit>
  }
  if(unlink("../iputdir") < 0){
    1128:	00007517          	auipc	a0,0x7
    112c:	2e850513          	addi	a0,a0,744 # 8410 <malloc+0x9a0>
    1130:	00006097          	auipc	ra,0x6
    1134:	268080e7          	jalr	616(ra) # 7398 <unlink>
    1138:	87aa                	mv	a5,a0
    113a:	0207d163          	bgez	a5,115c <iputtest+0xa8>
    printf("%s: unlink ../iputdir failed\n", s);
    113e:	fe843583          	ld	a1,-24(s0)
    1142:	00007517          	auipc	a0,0x7
    1146:	2de50513          	addi	a0,a0,734 # 8420 <malloc+0x9b0>
    114a:	00006097          	auipc	ra,0x6
    114e:	734080e7          	jalr	1844(ra) # 787e <printf>
    exit(1);
    1152:	4505                	li	a0,1
    1154:	00006097          	auipc	ra,0x6
    1158:	1f4080e7          	jalr	500(ra) # 7348 <exit>
  }
  if(chdir("/") < 0){
    115c:	00007517          	auipc	a0,0x7
    1160:	2e450513          	addi	a0,a0,740 # 8440 <malloc+0x9d0>
    1164:	00006097          	auipc	ra,0x6
    1168:	254080e7          	jalr	596(ra) # 73b8 <chdir>
    116c:	87aa                	mv	a5,a0
    116e:	0207d163          	bgez	a5,1190 <iputtest+0xdc>
    printf("%s: chdir / failed\n", s);
    1172:	fe843583          	ld	a1,-24(s0)
    1176:	00007517          	auipc	a0,0x7
    117a:	2d250513          	addi	a0,a0,722 # 8448 <malloc+0x9d8>
    117e:	00006097          	auipc	ra,0x6
    1182:	700080e7          	jalr	1792(ra) # 787e <printf>
    exit(1);
    1186:	4505                	li	a0,1
    1188:	00006097          	auipc	ra,0x6
    118c:	1c0080e7          	jalr	448(ra) # 7348 <exit>
  }
}
    1190:	0001                	nop
    1192:	60e2                	ld	ra,24(sp)
    1194:	6442                	ld	s0,16(sp)
    1196:	6105                	addi	sp,sp,32
    1198:	8082                	ret

000000000000119a <exitiputtest>:

// does exit() call iput(p->cwd) in a transaction?
void
exitiputtest(char *s)
{
    119a:	7179                	addi	sp,sp,-48
    119c:	f406                	sd	ra,40(sp)
    119e:	f022                	sd	s0,32(sp)
    11a0:	1800                	addi	s0,sp,48
    11a2:	fca43c23          	sd	a0,-40(s0)
  int pid, xstatus;

  pid = fork();
    11a6:	00006097          	auipc	ra,0x6
    11aa:	19a080e7          	jalr	410(ra) # 7340 <fork>
    11ae:	87aa                	mv	a5,a0
    11b0:	fef42623          	sw	a5,-20(s0)
  if(pid < 0){
    11b4:	fec42783          	lw	a5,-20(s0)
    11b8:	2781                	sext.w	a5,a5
    11ba:	0207d163          	bgez	a5,11dc <exitiputtest+0x42>
    printf("%s: fork failed\n", s);
    11be:	fd843583          	ld	a1,-40(s0)
    11c2:	00007517          	auipc	a0,0x7
    11c6:	18650513          	addi	a0,a0,390 # 8348 <malloc+0x8d8>
    11ca:	00006097          	auipc	ra,0x6
    11ce:	6b4080e7          	jalr	1716(ra) # 787e <printf>
    exit(1);
    11d2:	4505                	li	a0,1
    11d4:	00006097          	auipc	ra,0x6
    11d8:	174080e7          	jalr	372(ra) # 7348 <exit>
  }
  if(pid == 0){
    11dc:	fec42783          	lw	a5,-20(s0)
    11e0:	2781                	sext.w	a5,a5
    11e2:	e7c5                	bnez	a5,128a <exitiputtest+0xf0>
    if(mkdir("iputdir") < 0){
    11e4:	00007517          	auipc	a0,0x7
    11e8:	1ec50513          	addi	a0,a0,492 # 83d0 <malloc+0x960>
    11ec:	00006097          	auipc	ra,0x6
    11f0:	1c4080e7          	jalr	452(ra) # 73b0 <mkdir>
    11f4:	87aa                	mv	a5,a0
    11f6:	0207d163          	bgez	a5,1218 <exitiputtest+0x7e>
      printf("%s: mkdir failed\n", s);
    11fa:	fd843583          	ld	a1,-40(s0)
    11fe:	00007517          	auipc	a0,0x7
    1202:	1da50513          	addi	a0,a0,474 # 83d8 <malloc+0x968>
    1206:	00006097          	auipc	ra,0x6
    120a:	678080e7          	jalr	1656(ra) # 787e <printf>
      exit(1);
    120e:	4505                	li	a0,1
    1210:	00006097          	auipc	ra,0x6
    1214:	138080e7          	jalr	312(ra) # 7348 <exit>
    }
    if(chdir("iputdir") < 0){
    1218:	00007517          	auipc	a0,0x7
    121c:	1b850513          	addi	a0,a0,440 # 83d0 <malloc+0x960>
    1220:	00006097          	auipc	ra,0x6
    1224:	198080e7          	jalr	408(ra) # 73b8 <chdir>
    1228:	87aa                	mv	a5,a0
    122a:	0207d163          	bgez	a5,124c <exitiputtest+0xb2>
      printf("%s: child chdir failed\n", s);
    122e:	fd843583          	ld	a1,-40(s0)
    1232:	00007517          	auipc	a0,0x7
    1236:	22e50513          	addi	a0,a0,558 # 8460 <malloc+0x9f0>
    123a:	00006097          	auipc	ra,0x6
    123e:	644080e7          	jalr	1604(ra) # 787e <printf>
      exit(1);
    1242:	4505                	li	a0,1
    1244:	00006097          	auipc	ra,0x6
    1248:	104080e7          	jalr	260(ra) # 7348 <exit>
    }
    if(unlink("../iputdir") < 0){
    124c:	00007517          	auipc	a0,0x7
    1250:	1c450513          	addi	a0,a0,452 # 8410 <malloc+0x9a0>
    1254:	00006097          	auipc	ra,0x6
    1258:	144080e7          	jalr	324(ra) # 7398 <unlink>
    125c:	87aa                	mv	a5,a0
    125e:	0207d163          	bgez	a5,1280 <exitiputtest+0xe6>
      printf("%s: unlink ../iputdir failed\n", s);
    1262:	fd843583          	ld	a1,-40(s0)
    1266:	00007517          	auipc	a0,0x7
    126a:	1ba50513          	addi	a0,a0,442 # 8420 <malloc+0x9b0>
    126e:	00006097          	auipc	ra,0x6
    1272:	610080e7          	jalr	1552(ra) # 787e <printf>
      exit(1);
    1276:	4505                	li	a0,1
    1278:	00006097          	auipc	ra,0x6
    127c:	0d0080e7          	jalr	208(ra) # 7348 <exit>
    }
    exit(0);
    1280:	4501                	li	a0,0
    1282:	00006097          	auipc	ra,0x6
    1286:	0c6080e7          	jalr	198(ra) # 7348 <exit>
  }
  wait(&xstatus);
    128a:	fe840793          	addi	a5,s0,-24
    128e:	853e                	mv	a0,a5
    1290:	00006097          	auipc	ra,0x6
    1294:	0c0080e7          	jalr	192(ra) # 7350 <wait>
  exit(xstatus);
    1298:	fe842783          	lw	a5,-24(s0)
    129c:	853e                	mv	a0,a5
    129e:	00006097          	auipc	ra,0x6
    12a2:	0aa080e7          	jalr	170(ra) # 7348 <exit>

00000000000012a6 <openiputtest>:
//      for(i = 0; i < 10000; i++)
//        yield();
//    }
void
openiputtest(char *s)
{
    12a6:	7179                	addi	sp,sp,-48
    12a8:	f406                	sd	ra,40(sp)
    12aa:	f022                	sd	s0,32(sp)
    12ac:	1800                	addi	s0,sp,48
    12ae:	fca43c23          	sd	a0,-40(s0)
  int pid, xstatus;

  if(mkdir("oidir") < 0){
    12b2:	00007517          	auipc	a0,0x7
    12b6:	1c650513          	addi	a0,a0,454 # 8478 <malloc+0xa08>
    12ba:	00006097          	auipc	ra,0x6
    12be:	0f6080e7          	jalr	246(ra) # 73b0 <mkdir>
    12c2:	87aa                	mv	a5,a0
    12c4:	0207d163          	bgez	a5,12e6 <openiputtest+0x40>
    printf("%s: mkdir oidir failed\n", s);
    12c8:	fd843583          	ld	a1,-40(s0)
    12cc:	00007517          	auipc	a0,0x7
    12d0:	1b450513          	addi	a0,a0,436 # 8480 <malloc+0xa10>
    12d4:	00006097          	auipc	ra,0x6
    12d8:	5aa080e7          	jalr	1450(ra) # 787e <printf>
    exit(1);
    12dc:	4505                	li	a0,1
    12de:	00006097          	auipc	ra,0x6
    12e2:	06a080e7          	jalr	106(ra) # 7348 <exit>
  }
  pid = fork();
    12e6:	00006097          	auipc	ra,0x6
    12ea:	05a080e7          	jalr	90(ra) # 7340 <fork>
    12ee:	87aa                	mv	a5,a0
    12f0:	fef42623          	sw	a5,-20(s0)
  if(pid < 0){
    12f4:	fec42783          	lw	a5,-20(s0)
    12f8:	2781                	sext.w	a5,a5
    12fa:	0207d163          	bgez	a5,131c <openiputtest+0x76>
    printf("%s: fork failed\n", s);
    12fe:	fd843583          	ld	a1,-40(s0)
    1302:	00007517          	auipc	a0,0x7
    1306:	04650513          	addi	a0,a0,70 # 8348 <malloc+0x8d8>
    130a:	00006097          	auipc	ra,0x6
    130e:	574080e7          	jalr	1396(ra) # 787e <printf>
    exit(1);
    1312:	4505                	li	a0,1
    1314:	00006097          	auipc	ra,0x6
    1318:	034080e7          	jalr	52(ra) # 7348 <exit>
  }
  if(pid == 0){
    131c:	fec42783          	lw	a5,-20(s0)
    1320:	2781                	sext.w	a5,a5
    1322:	e7b1                	bnez	a5,136e <openiputtest+0xc8>
    int fd = open("oidir", O_RDWR);
    1324:	4589                	li	a1,2
    1326:	00007517          	auipc	a0,0x7
    132a:	15250513          	addi	a0,a0,338 # 8478 <malloc+0xa08>
    132e:	00006097          	auipc	ra,0x6
    1332:	05a080e7          	jalr	90(ra) # 7388 <open>
    1336:	87aa                	mv	a5,a0
    1338:	fef42423          	sw	a5,-24(s0)
    if(fd >= 0){
    133c:	fe842783          	lw	a5,-24(s0)
    1340:	2781                	sext.w	a5,a5
    1342:	0207c163          	bltz	a5,1364 <openiputtest+0xbe>
      printf("%s: open directory for write succeeded\n", s);
    1346:	fd843583          	ld	a1,-40(s0)
    134a:	00007517          	auipc	a0,0x7
    134e:	14e50513          	addi	a0,a0,334 # 8498 <malloc+0xa28>
    1352:	00006097          	auipc	ra,0x6
    1356:	52c080e7          	jalr	1324(ra) # 787e <printf>
      exit(1);
    135a:	4505                	li	a0,1
    135c:	00006097          	auipc	ra,0x6
    1360:	fec080e7          	jalr	-20(ra) # 7348 <exit>
    }
    exit(0);
    1364:	4501                	li	a0,0
    1366:	00006097          	auipc	ra,0x6
    136a:	fe2080e7          	jalr	-30(ra) # 7348 <exit>
  }
  sleep(1);
    136e:	4505                	li	a0,1
    1370:	00006097          	auipc	ra,0x6
    1374:	068080e7          	jalr	104(ra) # 73d8 <sleep>
  if(unlink("oidir") != 0){
    1378:	00007517          	auipc	a0,0x7
    137c:	10050513          	addi	a0,a0,256 # 8478 <malloc+0xa08>
    1380:	00006097          	auipc	ra,0x6
    1384:	018080e7          	jalr	24(ra) # 7398 <unlink>
    1388:	87aa                	mv	a5,a0
    138a:	c385                	beqz	a5,13aa <openiputtest+0x104>
    printf("%s: unlink failed\n", s);
    138c:	fd843583          	ld	a1,-40(s0)
    1390:	00007517          	auipc	a0,0x7
    1394:	13050513          	addi	a0,a0,304 # 84c0 <malloc+0xa50>
    1398:	00006097          	auipc	ra,0x6
    139c:	4e6080e7          	jalr	1254(ra) # 787e <printf>
    exit(1);
    13a0:	4505                	li	a0,1
    13a2:	00006097          	auipc	ra,0x6
    13a6:	fa6080e7          	jalr	-90(ra) # 7348 <exit>
  }
  wait(&xstatus);
    13aa:	fe440793          	addi	a5,s0,-28
    13ae:	853e                	mv	a0,a5
    13b0:	00006097          	auipc	ra,0x6
    13b4:	fa0080e7          	jalr	-96(ra) # 7350 <wait>
  exit(xstatus);
    13b8:	fe442783          	lw	a5,-28(s0)
    13bc:	853e                	mv	a0,a5
    13be:	00006097          	auipc	ra,0x6
    13c2:	f8a080e7          	jalr	-118(ra) # 7348 <exit>

00000000000013c6 <opentest>:

// simple file system tests

void
opentest(char *s)
{
    13c6:	7179                	addi	sp,sp,-48
    13c8:	f406                	sd	ra,40(sp)
    13ca:	f022                	sd	s0,32(sp)
    13cc:	1800                	addi	s0,sp,48
    13ce:	fca43c23          	sd	a0,-40(s0)
  int fd;

  fd = open("echo", 0);
    13d2:	4581                	li	a1,0
    13d4:	00007517          	auipc	a0,0x7
    13d8:	d5c50513          	addi	a0,a0,-676 # 8130 <malloc+0x6c0>
    13dc:	00006097          	auipc	ra,0x6
    13e0:	fac080e7          	jalr	-84(ra) # 7388 <open>
    13e4:	87aa                	mv	a5,a0
    13e6:	fef42623          	sw	a5,-20(s0)
  if(fd < 0){
    13ea:	fec42783          	lw	a5,-20(s0)
    13ee:	2781                	sext.w	a5,a5
    13f0:	0207d163          	bgez	a5,1412 <opentest+0x4c>
    printf("%s: open echo failed!\n", s);
    13f4:	fd843583          	ld	a1,-40(s0)
    13f8:	00007517          	auipc	a0,0x7
    13fc:	0e050513          	addi	a0,a0,224 # 84d8 <malloc+0xa68>
    1400:	00006097          	auipc	ra,0x6
    1404:	47e080e7          	jalr	1150(ra) # 787e <printf>
    exit(1);
    1408:	4505                	li	a0,1
    140a:	00006097          	auipc	ra,0x6
    140e:	f3e080e7          	jalr	-194(ra) # 7348 <exit>
  }
  close(fd);
    1412:	fec42783          	lw	a5,-20(s0)
    1416:	853e                	mv	a0,a5
    1418:	00006097          	auipc	ra,0x6
    141c:	f58080e7          	jalr	-168(ra) # 7370 <close>
  fd = open("doesnotexist", 0);
    1420:	4581                	li	a1,0
    1422:	00007517          	auipc	a0,0x7
    1426:	0ce50513          	addi	a0,a0,206 # 84f0 <malloc+0xa80>
    142a:	00006097          	auipc	ra,0x6
    142e:	f5e080e7          	jalr	-162(ra) # 7388 <open>
    1432:	87aa                	mv	a5,a0
    1434:	fef42623          	sw	a5,-20(s0)
  if(fd >= 0){
    1438:	fec42783          	lw	a5,-20(s0)
    143c:	2781                	sext.w	a5,a5
    143e:	0207c163          	bltz	a5,1460 <opentest+0x9a>
    printf("%s: open doesnotexist succeeded!\n", s);
    1442:	fd843583          	ld	a1,-40(s0)
    1446:	00007517          	auipc	a0,0x7
    144a:	0ba50513          	addi	a0,a0,186 # 8500 <malloc+0xa90>
    144e:	00006097          	auipc	ra,0x6
    1452:	430080e7          	jalr	1072(ra) # 787e <printf>
    exit(1);
    1456:	4505                	li	a0,1
    1458:	00006097          	auipc	ra,0x6
    145c:	ef0080e7          	jalr	-272(ra) # 7348 <exit>
  }
}
    1460:	0001                	nop
    1462:	70a2                	ld	ra,40(sp)
    1464:	7402                	ld	s0,32(sp)
    1466:	6145                	addi	sp,sp,48
    1468:	8082                	ret

000000000000146a <writetest>:

void
writetest(char *s)
{
    146a:	7179                	addi	sp,sp,-48
    146c:	f406                	sd	ra,40(sp)
    146e:	f022                	sd	s0,32(sp)
    1470:	1800                	addi	s0,sp,48
    1472:	fca43c23          	sd	a0,-40(s0)
  int fd;
  int i;
  enum { N=100, SZ=10 };
  
  fd = open("small", O_CREATE|O_RDWR);
    1476:	20200593          	li	a1,514
    147a:	00007517          	auipc	a0,0x7
    147e:	0ae50513          	addi	a0,a0,174 # 8528 <malloc+0xab8>
    1482:	00006097          	auipc	ra,0x6
    1486:	f06080e7          	jalr	-250(ra) # 7388 <open>
    148a:	87aa                	mv	a5,a0
    148c:	fef42423          	sw	a5,-24(s0)
  if(fd < 0){
    1490:	fe842783          	lw	a5,-24(s0)
    1494:	2781                	sext.w	a5,a5
    1496:	0207d163          	bgez	a5,14b8 <writetest+0x4e>
    printf("%s: error: creat small failed!\n", s);
    149a:	fd843583          	ld	a1,-40(s0)
    149e:	00007517          	auipc	a0,0x7
    14a2:	09250513          	addi	a0,a0,146 # 8530 <malloc+0xac0>
    14a6:	00006097          	auipc	ra,0x6
    14aa:	3d8080e7          	jalr	984(ra) # 787e <printf>
    exit(1);
    14ae:	4505                	li	a0,1
    14b0:	00006097          	auipc	ra,0x6
    14b4:	e98080e7          	jalr	-360(ra) # 7348 <exit>
  }
  for(i = 0; i < N; i++){
    14b8:	fe042623          	sw	zero,-20(s0)
    14bc:	a861                	j	1554 <writetest+0xea>
    if(write(fd, "aaaaaaaaaa", SZ) != SZ){
    14be:	fe842783          	lw	a5,-24(s0)
    14c2:	4629                	li	a2,10
    14c4:	00007597          	auipc	a1,0x7
    14c8:	08c58593          	addi	a1,a1,140 # 8550 <malloc+0xae0>
    14cc:	853e                	mv	a0,a5
    14ce:	00006097          	auipc	ra,0x6
    14d2:	e9a080e7          	jalr	-358(ra) # 7368 <write>
    14d6:	87aa                	mv	a5,a0
    14d8:	873e                	mv	a4,a5
    14da:	47a9                	li	a5,10
    14dc:	02f70463          	beq	a4,a5,1504 <writetest+0x9a>
      printf("%s: error: write aa %d new file failed\n", s, i);
    14e0:	fec42783          	lw	a5,-20(s0)
    14e4:	863e                	mv	a2,a5
    14e6:	fd843583          	ld	a1,-40(s0)
    14ea:	00007517          	auipc	a0,0x7
    14ee:	07650513          	addi	a0,a0,118 # 8560 <malloc+0xaf0>
    14f2:	00006097          	auipc	ra,0x6
    14f6:	38c080e7          	jalr	908(ra) # 787e <printf>
      exit(1);
    14fa:	4505                	li	a0,1
    14fc:	00006097          	auipc	ra,0x6
    1500:	e4c080e7          	jalr	-436(ra) # 7348 <exit>
    }
    if(write(fd, "bbbbbbbbbb", SZ) != SZ){
    1504:	fe842783          	lw	a5,-24(s0)
    1508:	4629                	li	a2,10
    150a:	00007597          	auipc	a1,0x7
    150e:	07e58593          	addi	a1,a1,126 # 8588 <malloc+0xb18>
    1512:	853e                	mv	a0,a5
    1514:	00006097          	auipc	ra,0x6
    1518:	e54080e7          	jalr	-428(ra) # 7368 <write>
    151c:	87aa                	mv	a5,a0
    151e:	873e                	mv	a4,a5
    1520:	47a9                	li	a5,10
    1522:	02f70463          	beq	a4,a5,154a <writetest+0xe0>
      printf("%s: error: write bb %d new file failed\n", s, i);
    1526:	fec42783          	lw	a5,-20(s0)
    152a:	863e                	mv	a2,a5
    152c:	fd843583          	ld	a1,-40(s0)
    1530:	00007517          	auipc	a0,0x7
    1534:	06850513          	addi	a0,a0,104 # 8598 <malloc+0xb28>
    1538:	00006097          	auipc	ra,0x6
    153c:	346080e7          	jalr	838(ra) # 787e <printf>
      exit(1);
    1540:	4505                	li	a0,1
    1542:	00006097          	auipc	ra,0x6
    1546:	e06080e7          	jalr	-506(ra) # 7348 <exit>
  for(i = 0; i < N; i++){
    154a:	fec42783          	lw	a5,-20(s0)
    154e:	2785                	addiw	a5,a5,1
    1550:	fef42623          	sw	a5,-20(s0)
    1554:	fec42783          	lw	a5,-20(s0)
    1558:	0007871b          	sext.w	a4,a5
    155c:	06300793          	li	a5,99
    1560:	f4e7dfe3          	bge	a5,a4,14be <writetest+0x54>
    }
  }
  close(fd);
    1564:	fe842783          	lw	a5,-24(s0)
    1568:	853e                	mv	a0,a5
    156a:	00006097          	auipc	ra,0x6
    156e:	e06080e7          	jalr	-506(ra) # 7370 <close>
  fd = open("small", O_RDONLY);
    1572:	4581                	li	a1,0
    1574:	00007517          	auipc	a0,0x7
    1578:	fb450513          	addi	a0,a0,-76 # 8528 <malloc+0xab8>
    157c:	00006097          	auipc	ra,0x6
    1580:	e0c080e7          	jalr	-500(ra) # 7388 <open>
    1584:	87aa                	mv	a5,a0
    1586:	fef42423          	sw	a5,-24(s0)
  if(fd < 0){
    158a:	fe842783          	lw	a5,-24(s0)
    158e:	2781                	sext.w	a5,a5
    1590:	0207d163          	bgez	a5,15b2 <writetest+0x148>
    printf("%s: error: open small failed!\n", s);
    1594:	fd843583          	ld	a1,-40(s0)
    1598:	00007517          	auipc	a0,0x7
    159c:	02850513          	addi	a0,a0,40 # 85c0 <malloc+0xb50>
    15a0:	00006097          	auipc	ra,0x6
    15a4:	2de080e7          	jalr	734(ra) # 787e <printf>
    exit(1);
    15a8:	4505                	li	a0,1
    15aa:	00006097          	auipc	ra,0x6
    15ae:	d9e080e7          	jalr	-610(ra) # 7348 <exit>
  }
  i = read(fd, buf, N*SZ*2);
    15b2:	fe842783          	lw	a5,-24(s0)
    15b6:	7d000613          	li	a2,2000
    15ba:	00009597          	auipc	a1,0x9
    15be:	e4e58593          	addi	a1,a1,-434 # a408 <buf>
    15c2:	853e                	mv	a0,a5
    15c4:	00006097          	auipc	ra,0x6
    15c8:	d9c080e7          	jalr	-612(ra) # 7360 <read>
    15cc:	87aa                	mv	a5,a0
    15ce:	fef42623          	sw	a5,-20(s0)
  if(i != N*SZ*2){
    15d2:	fec42783          	lw	a5,-20(s0)
    15d6:	0007871b          	sext.w	a4,a5
    15da:	7d000793          	li	a5,2000
    15de:	02f70163          	beq	a4,a5,1600 <writetest+0x196>
    printf("%s: read failed\n", s);
    15e2:	fd843583          	ld	a1,-40(s0)
    15e6:	00007517          	auipc	a0,0x7
    15ea:	ffa50513          	addi	a0,a0,-6 # 85e0 <malloc+0xb70>
    15ee:	00006097          	auipc	ra,0x6
    15f2:	290080e7          	jalr	656(ra) # 787e <printf>
    exit(1);
    15f6:	4505                	li	a0,1
    15f8:	00006097          	auipc	ra,0x6
    15fc:	d50080e7          	jalr	-688(ra) # 7348 <exit>
  }
  close(fd);
    1600:	fe842783          	lw	a5,-24(s0)
    1604:	853e                	mv	a0,a5
    1606:	00006097          	auipc	ra,0x6
    160a:	d6a080e7          	jalr	-662(ra) # 7370 <close>

  if(unlink("small") < 0){
    160e:	00007517          	auipc	a0,0x7
    1612:	f1a50513          	addi	a0,a0,-230 # 8528 <malloc+0xab8>
    1616:	00006097          	auipc	ra,0x6
    161a:	d82080e7          	jalr	-638(ra) # 7398 <unlink>
    161e:	87aa                	mv	a5,a0
    1620:	0207d163          	bgez	a5,1642 <writetest+0x1d8>
    printf("%s: unlink small failed\n", s);
    1624:	fd843583          	ld	a1,-40(s0)
    1628:	00007517          	auipc	a0,0x7
    162c:	fd050513          	addi	a0,a0,-48 # 85f8 <malloc+0xb88>
    1630:	00006097          	auipc	ra,0x6
    1634:	24e080e7          	jalr	590(ra) # 787e <printf>
    exit(1);
    1638:	4505                	li	a0,1
    163a:	00006097          	auipc	ra,0x6
    163e:	d0e080e7          	jalr	-754(ra) # 7348 <exit>
  }
}
    1642:	0001                	nop
    1644:	70a2                	ld	ra,40(sp)
    1646:	7402                	ld	s0,32(sp)
    1648:	6145                	addi	sp,sp,48
    164a:	8082                	ret

000000000000164c <writebig>:

void
writebig(char *s)
{
    164c:	7179                	addi	sp,sp,-48
    164e:	f406                	sd	ra,40(sp)
    1650:	f022                	sd	s0,32(sp)
    1652:	1800                	addi	s0,sp,48
    1654:	fca43c23          	sd	a0,-40(s0)
  int i, fd, n;

  fd = open("big", O_CREATE|O_RDWR);
    1658:	20200593          	li	a1,514
    165c:	00007517          	auipc	a0,0x7
    1660:	fbc50513          	addi	a0,a0,-68 # 8618 <malloc+0xba8>
    1664:	00006097          	auipc	ra,0x6
    1668:	d24080e7          	jalr	-732(ra) # 7388 <open>
    166c:	87aa                	mv	a5,a0
    166e:	fef42223          	sw	a5,-28(s0)
  if(fd < 0){
    1672:	fe442783          	lw	a5,-28(s0)
    1676:	2781                	sext.w	a5,a5
    1678:	0207d163          	bgez	a5,169a <writebig+0x4e>
    printf("%s: error: creat big failed!\n", s);
    167c:	fd843583          	ld	a1,-40(s0)
    1680:	00007517          	auipc	a0,0x7
    1684:	fa050513          	addi	a0,a0,-96 # 8620 <malloc+0xbb0>
    1688:	00006097          	auipc	ra,0x6
    168c:	1f6080e7          	jalr	502(ra) # 787e <printf>
    exit(1);
    1690:	4505                	li	a0,1
    1692:	00006097          	auipc	ra,0x6
    1696:	cb6080e7          	jalr	-842(ra) # 7348 <exit>
  }

  for(i = 0; i < MAXFILE; i++){
    169a:	fe042623          	sw	zero,-20(s0)
    169e:	a095                	j	1702 <writebig+0xb6>
    ((int*)buf)[0] = i;
    16a0:	00009797          	auipc	a5,0x9
    16a4:	d6878793          	addi	a5,a5,-664 # a408 <buf>
    16a8:	fec42703          	lw	a4,-20(s0)
    16ac:	c398                	sw	a4,0(a5)
    if(write(fd, buf, BSIZE) != BSIZE){
    16ae:	fe442783          	lw	a5,-28(s0)
    16b2:	40000613          	li	a2,1024
    16b6:	00009597          	auipc	a1,0x9
    16ba:	d5258593          	addi	a1,a1,-686 # a408 <buf>
    16be:	853e                	mv	a0,a5
    16c0:	00006097          	auipc	ra,0x6
    16c4:	ca8080e7          	jalr	-856(ra) # 7368 <write>
    16c8:	87aa                	mv	a5,a0
    16ca:	873e                	mv	a4,a5
    16cc:	40000793          	li	a5,1024
    16d0:	02f70463          	beq	a4,a5,16f8 <writebig+0xac>
      printf("%s: error: write big file failed\n", s, i);
    16d4:	fec42783          	lw	a5,-20(s0)
    16d8:	863e                	mv	a2,a5
    16da:	fd843583          	ld	a1,-40(s0)
    16de:	00007517          	auipc	a0,0x7
    16e2:	f6250513          	addi	a0,a0,-158 # 8640 <malloc+0xbd0>
    16e6:	00006097          	auipc	ra,0x6
    16ea:	198080e7          	jalr	408(ra) # 787e <printf>
      exit(1);
    16ee:	4505                	li	a0,1
    16f0:	00006097          	auipc	ra,0x6
    16f4:	c58080e7          	jalr	-936(ra) # 7348 <exit>
  for(i = 0; i < MAXFILE; i++){
    16f8:	fec42783          	lw	a5,-20(s0)
    16fc:	2785                	addiw	a5,a5,1
    16fe:	fef42623          	sw	a5,-20(s0)
    1702:	fec42783          	lw	a5,-20(s0)
    1706:	873e                	mv	a4,a5
    1708:	10b00793          	li	a5,267
    170c:	f8e7fae3          	bgeu	a5,a4,16a0 <writebig+0x54>
    }
  }

  close(fd);
    1710:	fe442783          	lw	a5,-28(s0)
    1714:	853e                	mv	a0,a5
    1716:	00006097          	auipc	ra,0x6
    171a:	c5a080e7          	jalr	-934(ra) # 7370 <close>

  fd = open("big", O_RDONLY);
    171e:	4581                	li	a1,0
    1720:	00007517          	auipc	a0,0x7
    1724:	ef850513          	addi	a0,a0,-264 # 8618 <malloc+0xba8>
    1728:	00006097          	auipc	ra,0x6
    172c:	c60080e7          	jalr	-928(ra) # 7388 <open>
    1730:	87aa                	mv	a5,a0
    1732:	fef42223          	sw	a5,-28(s0)
  if(fd < 0){
    1736:	fe442783          	lw	a5,-28(s0)
    173a:	2781                	sext.w	a5,a5
    173c:	0207d163          	bgez	a5,175e <writebig+0x112>
    printf("%s: error: open big failed!\n", s);
    1740:	fd843583          	ld	a1,-40(s0)
    1744:	00007517          	auipc	a0,0x7
    1748:	f2450513          	addi	a0,a0,-220 # 8668 <malloc+0xbf8>
    174c:	00006097          	auipc	ra,0x6
    1750:	132080e7          	jalr	306(ra) # 787e <printf>
    exit(1);
    1754:	4505                	li	a0,1
    1756:	00006097          	auipc	ra,0x6
    175a:	bf2080e7          	jalr	-1038(ra) # 7348 <exit>
  }

  n = 0;
    175e:	fe042423          	sw	zero,-24(s0)
  for(;;){
    i = read(fd, buf, BSIZE);
    1762:	fe442783          	lw	a5,-28(s0)
    1766:	40000613          	li	a2,1024
    176a:	00009597          	auipc	a1,0x9
    176e:	c9e58593          	addi	a1,a1,-866 # a408 <buf>
    1772:	853e                	mv	a0,a5
    1774:	00006097          	auipc	ra,0x6
    1778:	bec080e7          	jalr	-1044(ra) # 7360 <read>
    177c:	87aa                	mv	a5,a0
    177e:	fef42623          	sw	a5,-20(s0)
    if(i == 0){
    1782:	fec42783          	lw	a5,-20(s0)
    1786:	2781                	sext.w	a5,a5
    1788:	eb9d                	bnez	a5,17be <writebig+0x172>
      if(n == MAXFILE - 1){
    178a:	fe842783          	lw	a5,-24(s0)
    178e:	0007871b          	sext.w	a4,a5
    1792:	10b00793          	li	a5,267
    1796:	0af71663          	bne	a4,a5,1842 <writebig+0x1f6>
        printf("%s: read only %d blocks from big", s, n);
    179a:	fe842783          	lw	a5,-24(s0)
    179e:	863e                	mv	a2,a5
    17a0:	fd843583          	ld	a1,-40(s0)
    17a4:	00007517          	auipc	a0,0x7
    17a8:	ee450513          	addi	a0,a0,-284 # 8688 <malloc+0xc18>
    17ac:	00006097          	auipc	ra,0x6
    17b0:	0d2080e7          	jalr	210(ra) # 787e <printf>
        exit(1);
    17b4:	4505                	li	a0,1
    17b6:	00006097          	auipc	ra,0x6
    17ba:	b92080e7          	jalr	-1134(ra) # 7348 <exit>
      }
      break;
    } else if(i != BSIZE){
    17be:	fec42783          	lw	a5,-20(s0)
    17c2:	0007871b          	sext.w	a4,a5
    17c6:	40000793          	li	a5,1024
    17ca:	02f70463          	beq	a4,a5,17f2 <writebig+0x1a6>
      printf("%s: read failed %d\n", s, i);
    17ce:	fec42783          	lw	a5,-20(s0)
    17d2:	863e                	mv	a2,a5
    17d4:	fd843583          	ld	a1,-40(s0)
    17d8:	00007517          	auipc	a0,0x7
    17dc:	ed850513          	addi	a0,a0,-296 # 86b0 <malloc+0xc40>
    17e0:	00006097          	auipc	ra,0x6
    17e4:	09e080e7          	jalr	158(ra) # 787e <printf>
      exit(1);
    17e8:	4505                	li	a0,1
    17ea:	00006097          	auipc	ra,0x6
    17ee:	b5e080e7          	jalr	-1186(ra) # 7348 <exit>
    }
    if(((int*)buf)[0] != n){
    17f2:	00009797          	auipc	a5,0x9
    17f6:	c1678793          	addi	a5,a5,-1002 # a408 <buf>
    17fa:	4398                	lw	a4,0(a5)
    17fc:	fe842783          	lw	a5,-24(s0)
    1800:	2781                	sext.w	a5,a5
    1802:	02e78a63          	beq	a5,a4,1836 <writebig+0x1ea>
      printf("%s: read content of block %d is %d\n", s,
             n, ((int*)buf)[0]);
    1806:	00009797          	auipc	a5,0x9
    180a:	c0278793          	addi	a5,a5,-1022 # a408 <buf>
      printf("%s: read content of block %d is %d\n", s,
    180e:	4398                	lw	a4,0(a5)
    1810:	fe842783          	lw	a5,-24(s0)
    1814:	86ba                	mv	a3,a4
    1816:	863e                	mv	a2,a5
    1818:	fd843583          	ld	a1,-40(s0)
    181c:	00007517          	auipc	a0,0x7
    1820:	eac50513          	addi	a0,a0,-340 # 86c8 <malloc+0xc58>
    1824:	00006097          	auipc	ra,0x6
    1828:	05a080e7          	jalr	90(ra) # 787e <printf>
      exit(1);
    182c:	4505                	li	a0,1
    182e:	00006097          	auipc	ra,0x6
    1832:	b1a080e7          	jalr	-1254(ra) # 7348 <exit>
    }
    n++;
    1836:	fe842783          	lw	a5,-24(s0)
    183a:	2785                	addiw	a5,a5,1
    183c:	fef42423          	sw	a5,-24(s0)
    i = read(fd, buf, BSIZE);
    1840:	b70d                	j	1762 <writebig+0x116>
      break;
    1842:	0001                	nop
  }
  close(fd);
    1844:	fe442783          	lw	a5,-28(s0)
    1848:	853e                	mv	a0,a5
    184a:	00006097          	auipc	ra,0x6
    184e:	b26080e7          	jalr	-1242(ra) # 7370 <close>
  if(unlink("big") < 0){
    1852:	00007517          	auipc	a0,0x7
    1856:	dc650513          	addi	a0,a0,-570 # 8618 <malloc+0xba8>
    185a:	00006097          	auipc	ra,0x6
    185e:	b3e080e7          	jalr	-1218(ra) # 7398 <unlink>
    1862:	87aa                	mv	a5,a0
    1864:	0207d163          	bgez	a5,1886 <writebig+0x23a>
    printf("%s: unlink big failed\n", s);
    1868:	fd843583          	ld	a1,-40(s0)
    186c:	00007517          	auipc	a0,0x7
    1870:	e8450513          	addi	a0,a0,-380 # 86f0 <malloc+0xc80>
    1874:	00006097          	auipc	ra,0x6
    1878:	00a080e7          	jalr	10(ra) # 787e <printf>
    exit(1);
    187c:	4505                	li	a0,1
    187e:	00006097          	auipc	ra,0x6
    1882:	aca080e7          	jalr	-1334(ra) # 7348 <exit>
  }
}
    1886:	0001                	nop
    1888:	70a2                	ld	ra,40(sp)
    188a:	7402                	ld	s0,32(sp)
    188c:	6145                	addi	sp,sp,48
    188e:	8082                	ret

0000000000001890 <createtest>:

// many creates, followed by unlink test
void
createtest(char *s)
{
    1890:	7179                	addi	sp,sp,-48
    1892:	f406                	sd	ra,40(sp)
    1894:	f022                	sd	s0,32(sp)
    1896:	1800                	addi	s0,sp,48
    1898:	fca43c23          	sd	a0,-40(s0)
  int i, fd;
  enum { N=52 };

  char name[3];
  name[0] = 'a';
    189c:	06100793          	li	a5,97
    18a0:	fef40023          	sb	a5,-32(s0)
  name[2] = '\0';
    18a4:	fe040123          	sb	zero,-30(s0)
  for(i = 0; i < N; i++){
    18a8:	fe042623          	sw	zero,-20(s0)
    18ac:	a099                	j	18f2 <createtest+0x62>
    name[1] = '0' + i;
    18ae:	fec42783          	lw	a5,-20(s0)
    18b2:	0ff7f793          	andi	a5,a5,255
    18b6:	0307879b          	addiw	a5,a5,48
    18ba:	0ff7f793          	andi	a5,a5,255
    18be:	fef400a3          	sb	a5,-31(s0)
    fd = open(name, O_CREATE|O_RDWR);
    18c2:	fe040793          	addi	a5,s0,-32
    18c6:	20200593          	li	a1,514
    18ca:	853e                	mv	a0,a5
    18cc:	00006097          	auipc	ra,0x6
    18d0:	abc080e7          	jalr	-1348(ra) # 7388 <open>
    18d4:	87aa                	mv	a5,a0
    18d6:	fef42423          	sw	a5,-24(s0)
    close(fd);
    18da:	fe842783          	lw	a5,-24(s0)
    18de:	853e                	mv	a0,a5
    18e0:	00006097          	auipc	ra,0x6
    18e4:	a90080e7          	jalr	-1392(ra) # 7370 <close>
  for(i = 0; i < N; i++){
    18e8:	fec42783          	lw	a5,-20(s0)
    18ec:	2785                	addiw	a5,a5,1
    18ee:	fef42623          	sw	a5,-20(s0)
    18f2:	fec42783          	lw	a5,-20(s0)
    18f6:	0007871b          	sext.w	a4,a5
    18fa:	03300793          	li	a5,51
    18fe:	fae7d8e3          	bge	a5,a4,18ae <createtest+0x1e>
  }
  name[0] = 'a';
    1902:	06100793          	li	a5,97
    1906:	fef40023          	sb	a5,-32(s0)
  name[2] = '\0';
    190a:	fe040123          	sb	zero,-30(s0)
  for(i = 0; i < N; i++){
    190e:	fe042623          	sw	zero,-20(s0)
    1912:	a03d                	j	1940 <createtest+0xb0>
    name[1] = '0' + i;
    1914:	fec42783          	lw	a5,-20(s0)
    1918:	0ff7f793          	andi	a5,a5,255
    191c:	0307879b          	addiw	a5,a5,48
    1920:	0ff7f793          	andi	a5,a5,255
    1924:	fef400a3          	sb	a5,-31(s0)
    unlink(name);
    1928:	fe040793          	addi	a5,s0,-32
    192c:	853e                	mv	a0,a5
    192e:	00006097          	auipc	ra,0x6
    1932:	a6a080e7          	jalr	-1430(ra) # 7398 <unlink>
  for(i = 0; i < N; i++){
    1936:	fec42783          	lw	a5,-20(s0)
    193a:	2785                	addiw	a5,a5,1
    193c:	fef42623          	sw	a5,-20(s0)
    1940:	fec42783          	lw	a5,-20(s0)
    1944:	0007871b          	sext.w	a4,a5
    1948:	03300793          	li	a5,51
    194c:	fce7d4e3          	bge	a5,a4,1914 <createtest+0x84>
  }
}
    1950:	0001                	nop
    1952:	0001                	nop
    1954:	70a2                	ld	ra,40(sp)
    1956:	7402                	ld	s0,32(sp)
    1958:	6145                	addi	sp,sp,48
    195a:	8082                	ret

000000000000195c <dirtest>:

void dirtest(char *s)
{
    195c:	1101                	addi	sp,sp,-32
    195e:	ec06                	sd	ra,24(sp)
    1960:	e822                	sd	s0,16(sp)
    1962:	1000                	addi	s0,sp,32
    1964:	fea43423          	sd	a0,-24(s0)
  if(mkdir("dir0") < 0){
    1968:	00007517          	auipc	a0,0x7
    196c:	da050513          	addi	a0,a0,-608 # 8708 <malloc+0xc98>
    1970:	00006097          	auipc	ra,0x6
    1974:	a40080e7          	jalr	-1472(ra) # 73b0 <mkdir>
    1978:	87aa                	mv	a5,a0
    197a:	0207d163          	bgez	a5,199c <dirtest+0x40>
    printf("%s: mkdir failed\n", s);
    197e:	fe843583          	ld	a1,-24(s0)
    1982:	00007517          	auipc	a0,0x7
    1986:	a5650513          	addi	a0,a0,-1450 # 83d8 <malloc+0x968>
    198a:	00006097          	auipc	ra,0x6
    198e:	ef4080e7          	jalr	-268(ra) # 787e <printf>
    exit(1);
    1992:	4505                	li	a0,1
    1994:	00006097          	auipc	ra,0x6
    1998:	9b4080e7          	jalr	-1612(ra) # 7348 <exit>
  }

  if(chdir("dir0") < 0){
    199c:	00007517          	auipc	a0,0x7
    19a0:	d6c50513          	addi	a0,a0,-660 # 8708 <malloc+0xc98>
    19a4:	00006097          	auipc	ra,0x6
    19a8:	a14080e7          	jalr	-1516(ra) # 73b8 <chdir>
    19ac:	87aa                	mv	a5,a0
    19ae:	0207d163          	bgez	a5,19d0 <dirtest+0x74>
    printf("%s: chdir dir0 failed\n", s);
    19b2:	fe843583          	ld	a1,-24(s0)
    19b6:	00007517          	auipc	a0,0x7
    19ba:	d5a50513          	addi	a0,a0,-678 # 8710 <malloc+0xca0>
    19be:	00006097          	auipc	ra,0x6
    19c2:	ec0080e7          	jalr	-320(ra) # 787e <printf>
    exit(1);
    19c6:	4505                	li	a0,1
    19c8:	00006097          	auipc	ra,0x6
    19cc:	980080e7          	jalr	-1664(ra) # 7348 <exit>
  }

  if(chdir("..") < 0){
    19d0:	00007517          	auipc	a0,0x7
    19d4:	d5850513          	addi	a0,a0,-680 # 8728 <malloc+0xcb8>
    19d8:	00006097          	auipc	ra,0x6
    19dc:	9e0080e7          	jalr	-1568(ra) # 73b8 <chdir>
    19e0:	87aa                	mv	a5,a0
    19e2:	0207d163          	bgez	a5,1a04 <dirtest+0xa8>
    printf("%s: chdir .. failed\n", s);
    19e6:	fe843583          	ld	a1,-24(s0)
    19ea:	00007517          	auipc	a0,0x7
    19ee:	d4650513          	addi	a0,a0,-698 # 8730 <malloc+0xcc0>
    19f2:	00006097          	auipc	ra,0x6
    19f6:	e8c080e7          	jalr	-372(ra) # 787e <printf>
    exit(1);
    19fa:	4505                	li	a0,1
    19fc:	00006097          	auipc	ra,0x6
    1a00:	94c080e7          	jalr	-1716(ra) # 7348 <exit>
  }

  if(unlink("dir0") < 0){
    1a04:	00007517          	auipc	a0,0x7
    1a08:	d0450513          	addi	a0,a0,-764 # 8708 <malloc+0xc98>
    1a0c:	00006097          	auipc	ra,0x6
    1a10:	98c080e7          	jalr	-1652(ra) # 7398 <unlink>
    1a14:	87aa                	mv	a5,a0
    1a16:	0207d163          	bgez	a5,1a38 <dirtest+0xdc>
    printf("%s: unlink dir0 failed\n", s);
    1a1a:	fe843583          	ld	a1,-24(s0)
    1a1e:	00007517          	auipc	a0,0x7
    1a22:	d2a50513          	addi	a0,a0,-726 # 8748 <malloc+0xcd8>
    1a26:	00006097          	auipc	ra,0x6
    1a2a:	e58080e7          	jalr	-424(ra) # 787e <printf>
    exit(1);
    1a2e:	4505                	li	a0,1
    1a30:	00006097          	auipc	ra,0x6
    1a34:	918080e7          	jalr	-1768(ra) # 7348 <exit>
  }
}
    1a38:	0001                	nop
    1a3a:	60e2                	ld	ra,24(sp)
    1a3c:	6442                	ld	s0,16(sp)
    1a3e:	6105                	addi	sp,sp,32
    1a40:	8082                	ret

0000000000001a42 <exectest>:

void
exectest(char *s)
{
    1a42:	715d                	addi	sp,sp,-80
    1a44:	e486                	sd	ra,72(sp)
    1a46:	e0a2                	sd	s0,64(sp)
    1a48:	0880                	addi	s0,sp,80
    1a4a:	faa43c23          	sd	a0,-72(s0)
  int fd, xstatus, pid;
  char *echoargv[] = { "echo", "OK", 0 };
    1a4e:	00006797          	auipc	a5,0x6
    1a52:	6e278793          	addi	a5,a5,1762 # 8130 <malloc+0x6c0>
    1a56:	fcf43423          	sd	a5,-56(s0)
    1a5a:	00007797          	auipc	a5,0x7
    1a5e:	d0678793          	addi	a5,a5,-762 # 8760 <malloc+0xcf0>
    1a62:	fcf43823          	sd	a5,-48(s0)
    1a66:	fc043c23          	sd	zero,-40(s0)
  char buf[3];

  unlink("echo-ok");
    1a6a:	00007517          	auipc	a0,0x7
    1a6e:	cfe50513          	addi	a0,a0,-770 # 8768 <malloc+0xcf8>
    1a72:	00006097          	auipc	ra,0x6
    1a76:	926080e7          	jalr	-1754(ra) # 7398 <unlink>
  pid = fork();
    1a7a:	00006097          	auipc	ra,0x6
    1a7e:	8c6080e7          	jalr	-1850(ra) # 7340 <fork>
    1a82:	87aa                	mv	a5,a0
    1a84:	fef42623          	sw	a5,-20(s0)
  if(pid < 0) {
    1a88:	fec42783          	lw	a5,-20(s0)
    1a8c:	2781                	sext.w	a5,a5
    1a8e:	0207d163          	bgez	a5,1ab0 <exectest+0x6e>
     printf("%s: fork failed\n", s);
    1a92:	fb843583          	ld	a1,-72(s0)
    1a96:	00007517          	auipc	a0,0x7
    1a9a:	8b250513          	addi	a0,a0,-1870 # 8348 <malloc+0x8d8>
    1a9e:	00006097          	auipc	ra,0x6
    1aa2:	de0080e7          	jalr	-544(ra) # 787e <printf>
     exit(1);
    1aa6:	4505                	li	a0,1
    1aa8:	00006097          	auipc	ra,0x6
    1aac:	8a0080e7          	jalr	-1888(ra) # 7348 <exit>
  }
  if(pid == 0) {
    1ab0:	fec42783          	lw	a5,-20(s0)
    1ab4:	2781                	sext.w	a5,a5
    1ab6:	ebd5                	bnez	a5,1b6a <exectest+0x128>
    close(1);
    1ab8:	4505                	li	a0,1
    1aba:	00006097          	auipc	ra,0x6
    1abe:	8b6080e7          	jalr	-1866(ra) # 7370 <close>
    fd = open("echo-ok", O_CREATE|O_WRONLY);
    1ac2:	20100593          	li	a1,513
    1ac6:	00007517          	auipc	a0,0x7
    1aca:	ca250513          	addi	a0,a0,-862 # 8768 <malloc+0xcf8>
    1ace:	00006097          	auipc	ra,0x6
    1ad2:	8ba080e7          	jalr	-1862(ra) # 7388 <open>
    1ad6:	87aa                	mv	a5,a0
    1ad8:	fef42423          	sw	a5,-24(s0)
    if(fd < 0) {
    1adc:	fe842783          	lw	a5,-24(s0)
    1ae0:	2781                	sext.w	a5,a5
    1ae2:	0207d163          	bgez	a5,1b04 <exectest+0xc2>
      printf("%s: create failed\n", s);
    1ae6:	fb843583          	ld	a1,-72(s0)
    1aea:	00007517          	auipc	a0,0x7
    1aee:	c8650513          	addi	a0,a0,-890 # 8770 <malloc+0xd00>
    1af2:	00006097          	auipc	ra,0x6
    1af6:	d8c080e7          	jalr	-628(ra) # 787e <printf>
      exit(1);
    1afa:	4505                	li	a0,1
    1afc:	00006097          	auipc	ra,0x6
    1b00:	84c080e7          	jalr	-1972(ra) # 7348 <exit>
    }
    if(fd != 1) {
    1b04:	fe842783          	lw	a5,-24(s0)
    1b08:	0007871b          	sext.w	a4,a5
    1b0c:	4785                	li	a5,1
    1b0e:	02f70163          	beq	a4,a5,1b30 <exectest+0xee>
      printf("%s: wrong fd\n", s);
    1b12:	fb843583          	ld	a1,-72(s0)
    1b16:	00007517          	auipc	a0,0x7
    1b1a:	c7250513          	addi	a0,a0,-910 # 8788 <malloc+0xd18>
    1b1e:	00006097          	auipc	ra,0x6
    1b22:	d60080e7          	jalr	-672(ra) # 787e <printf>
      exit(1);
    1b26:	4505                	li	a0,1
    1b28:	00006097          	auipc	ra,0x6
    1b2c:	820080e7          	jalr	-2016(ra) # 7348 <exit>
    }
    if(exec("echo", echoargv) < 0){
    1b30:	fc840793          	addi	a5,s0,-56
    1b34:	85be                	mv	a1,a5
    1b36:	00006517          	auipc	a0,0x6
    1b3a:	5fa50513          	addi	a0,a0,1530 # 8130 <malloc+0x6c0>
    1b3e:	00006097          	auipc	ra,0x6
    1b42:	842080e7          	jalr	-1982(ra) # 7380 <exec>
    1b46:	87aa                	mv	a5,a0
    1b48:	0207d163          	bgez	a5,1b6a <exectest+0x128>
      printf("%s: exec echo failed\n", s);
    1b4c:	fb843583          	ld	a1,-72(s0)
    1b50:	00007517          	auipc	a0,0x7
    1b54:	c4850513          	addi	a0,a0,-952 # 8798 <malloc+0xd28>
    1b58:	00006097          	auipc	ra,0x6
    1b5c:	d26080e7          	jalr	-730(ra) # 787e <printf>
      exit(1);
    1b60:	4505                	li	a0,1
    1b62:	00005097          	auipc	ra,0x5
    1b66:	7e6080e7          	jalr	2022(ra) # 7348 <exit>
    }
    // won't get to here
  }
  if (wait(&xstatus) != pid) {
    1b6a:	fe440793          	addi	a5,s0,-28
    1b6e:	853e                	mv	a0,a5
    1b70:	00005097          	auipc	ra,0x5
    1b74:	7e0080e7          	jalr	2016(ra) # 7350 <wait>
    1b78:	87aa                	mv	a5,a0
    1b7a:	873e                	mv	a4,a5
    1b7c:	fec42783          	lw	a5,-20(s0)
    1b80:	2781                	sext.w	a5,a5
    1b82:	00e78c63          	beq	a5,a4,1b9a <exectest+0x158>
    printf("%s: wait failed!\n", s);
    1b86:	fb843583          	ld	a1,-72(s0)
    1b8a:	00007517          	auipc	a0,0x7
    1b8e:	c2650513          	addi	a0,a0,-986 # 87b0 <malloc+0xd40>
    1b92:	00006097          	auipc	ra,0x6
    1b96:	cec080e7          	jalr	-788(ra) # 787e <printf>
  }
  if(xstatus != 0)
    1b9a:	fe442783          	lw	a5,-28(s0)
    1b9e:	cb81                	beqz	a5,1bae <exectest+0x16c>
    exit(xstatus);
    1ba0:	fe442783          	lw	a5,-28(s0)
    1ba4:	853e                	mv	a0,a5
    1ba6:	00005097          	auipc	ra,0x5
    1baa:	7a2080e7          	jalr	1954(ra) # 7348 <exit>

  fd = open("echo-ok", O_RDONLY);
    1bae:	4581                	li	a1,0
    1bb0:	00007517          	auipc	a0,0x7
    1bb4:	bb850513          	addi	a0,a0,-1096 # 8768 <malloc+0xcf8>
    1bb8:	00005097          	auipc	ra,0x5
    1bbc:	7d0080e7          	jalr	2000(ra) # 7388 <open>
    1bc0:	87aa                	mv	a5,a0
    1bc2:	fef42423          	sw	a5,-24(s0)
  if(fd < 0) {
    1bc6:	fe842783          	lw	a5,-24(s0)
    1bca:	2781                	sext.w	a5,a5
    1bcc:	0207d163          	bgez	a5,1bee <exectest+0x1ac>
    printf("%s: open failed\n", s);
    1bd0:	fb843583          	ld	a1,-72(s0)
    1bd4:	00006517          	auipc	a0,0x6
    1bd8:	78c50513          	addi	a0,a0,1932 # 8360 <malloc+0x8f0>
    1bdc:	00006097          	auipc	ra,0x6
    1be0:	ca2080e7          	jalr	-862(ra) # 787e <printf>
    exit(1);
    1be4:	4505                	li	a0,1
    1be6:	00005097          	auipc	ra,0x5
    1bea:	762080e7          	jalr	1890(ra) # 7348 <exit>
  }
  if (read(fd, buf, 2) != 2) {
    1bee:	fc040713          	addi	a4,s0,-64
    1bf2:	fe842783          	lw	a5,-24(s0)
    1bf6:	4609                	li	a2,2
    1bf8:	85ba                	mv	a1,a4
    1bfa:	853e                	mv	a0,a5
    1bfc:	00005097          	auipc	ra,0x5
    1c00:	764080e7          	jalr	1892(ra) # 7360 <read>
    1c04:	87aa                	mv	a5,a0
    1c06:	873e                	mv	a4,a5
    1c08:	4789                	li	a5,2
    1c0a:	02f70163          	beq	a4,a5,1c2c <exectest+0x1ea>
    printf("%s: read failed\n", s);
    1c0e:	fb843583          	ld	a1,-72(s0)
    1c12:	00007517          	auipc	a0,0x7
    1c16:	9ce50513          	addi	a0,a0,-1586 # 85e0 <malloc+0xb70>
    1c1a:	00006097          	auipc	ra,0x6
    1c1e:	c64080e7          	jalr	-924(ra) # 787e <printf>
    exit(1);
    1c22:	4505                	li	a0,1
    1c24:	00005097          	auipc	ra,0x5
    1c28:	724080e7          	jalr	1828(ra) # 7348 <exit>
  }
  unlink("echo-ok");
    1c2c:	00007517          	auipc	a0,0x7
    1c30:	b3c50513          	addi	a0,a0,-1220 # 8768 <malloc+0xcf8>
    1c34:	00005097          	auipc	ra,0x5
    1c38:	764080e7          	jalr	1892(ra) # 7398 <unlink>
  if(buf[0] == 'O' && buf[1] == 'K')
    1c3c:	fc044783          	lbu	a5,-64(s0)
    1c40:	873e                	mv	a4,a5
    1c42:	04f00793          	li	a5,79
    1c46:	00f71e63          	bne	a4,a5,1c62 <exectest+0x220>
    1c4a:	fc144783          	lbu	a5,-63(s0)
    1c4e:	873e                	mv	a4,a5
    1c50:	04b00793          	li	a5,75
    1c54:	00f71763          	bne	a4,a5,1c62 <exectest+0x220>
    exit(0);
    1c58:	4501                	li	a0,0
    1c5a:	00005097          	auipc	ra,0x5
    1c5e:	6ee080e7          	jalr	1774(ra) # 7348 <exit>
  else {
    printf("%s: wrong output\n", s);
    1c62:	fb843583          	ld	a1,-72(s0)
    1c66:	00007517          	auipc	a0,0x7
    1c6a:	b6250513          	addi	a0,a0,-1182 # 87c8 <malloc+0xd58>
    1c6e:	00006097          	auipc	ra,0x6
    1c72:	c10080e7          	jalr	-1008(ra) # 787e <printf>
    exit(1);
    1c76:	4505                	li	a0,1
    1c78:	00005097          	auipc	ra,0x5
    1c7c:	6d0080e7          	jalr	1744(ra) # 7348 <exit>

0000000000001c80 <pipe1>:

// simple fork and pipe read/write

void
pipe1(char *s)
{
    1c80:	715d                	addi	sp,sp,-80
    1c82:	e486                	sd	ra,72(sp)
    1c84:	e0a2                	sd	s0,64(sp)
    1c86:	0880                	addi	s0,sp,80
    1c88:	faa43c23          	sd	a0,-72(s0)
  int fds[2], pid, xstatus;
  int seq, i, n, cc, total;
  enum { N=5, SZ=1033 };
  
  if(pipe(fds) != 0){
    1c8c:	fd040793          	addi	a5,s0,-48
    1c90:	853e                	mv	a0,a5
    1c92:	00005097          	auipc	ra,0x5
    1c96:	6c6080e7          	jalr	1734(ra) # 7358 <pipe>
    1c9a:	87aa                	mv	a5,a0
    1c9c:	c385                	beqz	a5,1cbc <pipe1+0x3c>
    printf("%s: pipe() failed\n", s);
    1c9e:	fb843583          	ld	a1,-72(s0)
    1ca2:	00007517          	auipc	a0,0x7
    1ca6:	b3e50513          	addi	a0,a0,-1218 # 87e0 <malloc+0xd70>
    1caa:	00006097          	auipc	ra,0x6
    1cae:	bd4080e7          	jalr	-1068(ra) # 787e <printf>
    exit(1);
    1cb2:	4505                	li	a0,1
    1cb4:	00005097          	auipc	ra,0x5
    1cb8:	694080e7          	jalr	1684(ra) # 7348 <exit>
  }
  pid = fork();
    1cbc:	00005097          	auipc	ra,0x5
    1cc0:	684080e7          	jalr	1668(ra) # 7340 <fork>
    1cc4:	87aa                	mv	a5,a0
    1cc6:	fcf42c23          	sw	a5,-40(s0)
  seq = 0;
    1cca:	fe042623          	sw	zero,-20(s0)
  if(pid == 0){
    1cce:	fd842783          	lw	a5,-40(s0)
    1cd2:	2781                	sext.w	a5,a5
    1cd4:	efdd                	bnez	a5,1d92 <pipe1+0x112>
    close(fds[0]);
    1cd6:	fd042783          	lw	a5,-48(s0)
    1cda:	853e                	mv	a0,a5
    1cdc:	00005097          	auipc	ra,0x5
    1ce0:	694080e7          	jalr	1684(ra) # 7370 <close>
    for(n = 0; n < N; n++){
    1ce4:	fe042223          	sw	zero,-28(s0)
    1ce8:	a849                	j	1d7a <pipe1+0xfa>
      for(i = 0; i < SZ; i++)
    1cea:	fe042423          	sw	zero,-24(s0)
    1cee:	a03d                	j	1d1c <pipe1+0x9c>
        buf[i] = seq++;
    1cf0:	fec42783          	lw	a5,-20(s0)
    1cf4:	0017871b          	addiw	a4,a5,1
    1cf8:	fee42623          	sw	a4,-20(s0)
    1cfc:	0ff7f713          	andi	a4,a5,255
    1d00:	00008697          	auipc	a3,0x8
    1d04:	70868693          	addi	a3,a3,1800 # a408 <buf>
    1d08:	fe842783          	lw	a5,-24(s0)
    1d0c:	97b6                	add	a5,a5,a3
    1d0e:	00e78023          	sb	a4,0(a5)
      for(i = 0; i < SZ; i++)
    1d12:	fe842783          	lw	a5,-24(s0)
    1d16:	2785                	addiw	a5,a5,1
    1d18:	fef42423          	sw	a5,-24(s0)
    1d1c:	fe842783          	lw	a5,-24(s0)
    1d20:	0007871b          	sext.w	a4,a5
    1d24:	40800793          	li	a5,1032
    1d28:	fce7d4e3          	bge	a5,a4,1cf0 <pipe1+0x70>
      if(write(fds[1], buf, SZ) != SZ){
    1d2c:	fd442783          	lw	a5,-44(s0)
    1d30:	40900613          	li	a2,1033
    1d34:	00008597          	auipc	a1,0x8
    1d38:	6d458593          	addi	a1,a1,1748 # a408 <buf>
    1d3c:	853e                	mv	a0,a5
    1d3e:	00005097          	auipc	ra,0x5
    1d42:	62a080e7          	jalr	1578(ra) # 7368 <write>
    1d46:	87aa                	mv	a5,a0
    1d48:	873e                	mv	a4,a5
    1d4a:	40900793          	li	a5,1033
    1d4e:	02f70163          	beq	a4,a5,1d70 <pipe1+0xf0>
        printf("%s: pipe1 oops 1\n", s);
    1d52:	fb843583          	ld	a1,-72(s0)
    1d56:	00007517          	auipc	a0,0x7
    1d5a:	aa250513          	addi	a0,a0,-1374 # 87f8 <malloc+0xd88>
    1d5e:	00006097          	auipc	ra,0x6
    1d62:	b20080e7          	jalr	-1248(ra) # 787e <printf>
        exit(1);
    1d66:	4505                	li	a0,1
    1d68:	00005097          	auipc	ra,0x5
    1d6c:	5e0080e7          	jalr	1504(ra) # 7348 <exit>
    for(n = 0; n < N; n++){
    1d70:	fe442783          	lw	a5,-28(s0)
    1d74:	2785                	addiw	a5,a5,1
    1d76:	fef42223          	sw	a5,-28(s0)
    1d7a:	fe442783          	lw	a5,-28(s0)
    1d7e:	0007871b          	sext.w	a4,a5
    1d82:	4791                	li	a5,4
    1d84:	f6e7d3e3          	bge	a5,a4,1cea <pipe1+0x6a>
      }
    }
    exit(0);
    1d88:	4501                	li	a0,0
    1d8a:	00005097          	auipc	ra,0x5
    1d8e:	5be080e7          	jalr	1470(ra) # 7348 <exit>
  } else if(pid > 0){
    1d92:	fd842783          	lw	a5,-40(s0)
    1d96:	2781                	sext.w	a5,a5
    1d98:	12f05b63          	blez	a5,1ece <pipe1+0x24e>
    close(fds[1]);
    1d9c:	fd442783          	lw	a5,-44(s0)
    1da0:	853e                	mv	a0,a5
    1da2:	00005097          	auipc	ra,0x5
    1da6:	5ce080e7          	jalr	1486(ra) # 7370 <close>
    total = 0;
    1daa:	fc042e23          	sw	zero,-36(s0)
    cc = 1;
    1dae:	4785                	li	a5,1
    1db0:	fef42023          	sw	a5,-32(s0)
    while((n = read(fds[0], buf, cc)) > 0){
    1db4:	a849                	j	1e46 <pipe1+0x1c6>
      for(i = 0; i < n; i++){
    1db6:	fe042423          	sw	zero,-24(s0)
    1dba:	a881                	j	1e0a <pipe1+0x18a>
        if((buf[i] & 0xff) != (seq++ & 0xff)){
    1dbc:	00008717          	auipc	a4,0x8
    1dc0:	64c70713          	addi	a4,a4,1612 # a408 <buf>
    1dc4:	fe842783          	lw	a5,-24(s0)
    1dc8:	97ba                	add	a5,a5,a4
    1dca:	0007c783          	lbu	a5,0(a5)
    1dce:	0007869b          	sext.w	a3,a5
    1dd2:	fec42783          	lw	a5,-20(s0)
    1dd6:	0017871b          	addiw	a4,a5,1
    1dda:	fee42623          	sw	a4,-20(s0)
    1dde:	0ff7f793          	andi	a5,a5,255
    1de2:	2781                	sext.w	a5,a5
    1de4:	8736                	mv	a4,a3
    1de6:	00f70d63          	beq	a4,a5,1e00 <pipe1+0x180>
          printf("%s: pipe1 oops 2\n", s);
    1dea:	fb843583          	ld	a1,-72(s0)
    1dee:	00007517          	auipc	a0,0x7
    1df2:	a2250513          	addi	a0,a0,-1502 # 8810 <malloc+0xda0>
    1df6:	00006097          	auipc	ra,0x6
    1dfa:	a88080e7          	jalr	-1400(ra) # 787e <printf>
          return;
    1dfe:	a0fd                	j	1eec <pipe1+0x26c>
      for(i = 0; i < n; i++){
    1e00:	fe842783          	lw	a5,-24(s0)
    1e04:	2785                	addiw	a5,a5,1
    1e06:	fef42423          	sw	a5,-24(s0)
    1e0a:	fe842703          	lw	a4,-24(s0)
    1e0e:	fe442783          	lw	a5,-28(s0)
    1e12:	2701                	sext.w	a4,a4
    1e14:	2781                	sext.w	a5,a5
    1e16:	faf743e3          	blt	a4,a5,1dbc <pipe1+0x13c>
        }
      }
      total += n;
    1e1a:	fdc42703          	lw	a4,-36(s0)
    1e1e:	fe442783          	lw	a5,-28(s0)
    1e22:	9fb9                	addw	a5,a5,a4
    1e24:	fcf42e23          	sw	a5,-36(s0)
      cc = cc * 2;
    1e28:	fe042783          	lw	a5,-32(s0)
    1e2c:	0017979b          	slliw	a5,a5,0x1
    1e30:	fef42023          	sw	a5,-32(s0)
      if(cc > sizeof(buf))
    1e34:	fe042783          	lw	a5,-32(s0)
    1e38:	873e                	mv	a4,a5
    1e3a:	678d                	lui	a5,0x3
    1e3c:	00e7f563          	bgeu	a5,a4,1e46 <pipe1+0x1c6>
        cc = sizeof(buf);
    1e40:	678d                	lui	a5,0x3
    1e42:	fef42023          	sw	a5,-32(s0)
    while((n = read(fds[0], buf, cc)) > 0){
    1e46:	fd042783          	lw	a5,-48(s0)
    1e4a:	fe042703          	lw	a4,-32(s0)
    1e4e:	863a                	mv	a2,a4
    1e50:	00008597          	auipc	a1,0x8
    1e54:	5b858593          	addi	a1,a1,1464 # a408 <buf>
    1e58:	853e                	mv	a0,a5
    1e5a:	00005097          	auipc	ra,0x5
    1e5e:	506080e7          	jalr	1286(ra) # 7360 <read>
    1e62:	87aa                	mv	a5,a0
    1e64:	fef42223          	sw	a5,-28(s0)
    1e68:	fe442783          	lw	a5,-28(s0)
    1e6c:	2781                	sext.w	a5,a5
    1e6e:	f4f044e3          	bgtz	a5,1db6 <pipe1+0x136>
    }
    if(total != N * SZ){
    1e72:	fdc42783          	lw	a5,-36(s0)
    1e76:	0007871b          	sext.w	a4,a5
    1e7a:	6785                	lui	a5,0x1
    1e7c:	42d78793          	addi	a5,a5,1069 # 142d <opentest+0x67>
    1e80:	02f70263          	beq	a4,a5,1ea4 <pipe1+0x224>
      printf("%s: pipe1 oops 3 total %d\n", total);
    1e84:	fdc42783          	lw	a5,-36(s0)
    1e88:	85be                	mv	a1,a5
    1e8a:	00007517          	auipc	a0,0x7
    1e8e:	99e50513          	addi	a0,a0,-1634 # 8828 <malloc+0xdb8>
    1e92:	00006097          	auipc	ra,0x6
    1e96:	9ec080e7          	jalr	-1556(ra) # 787e <printf>
      exit(1);
    1e9a:	4505                	li	a0,1
    1e9c:	00005097          	auipc	ra,0x5
    1ea0:	4ac080e7          	jalr	1196(ra) # 7348 <exit>
    }
    close(fds[0]);
    1ea4:	fd042783          	lw	a5,-48(s0)
    1ea8:	853e                	mv	a0,a5
    1eaa:	00005097          	auipc	ra,0x5
    1eae:	4c6080e7          	jalr	1222(ra) # 7370 <close>
    wait(&xstatus);
    1eb2:	fcc40793          	addi	a5,s0,-52
    1eb6:	853e                	mv	a0,a5
    1eb8:	00005097          	auipc	ra,0x5
    1ebc:	498080e7          	jalr	1176(ra) # 7350 <wait>
    exit(xstatus);
    1ec0:	fcc42783          	lw	a5,-52(s0)
    1ec4:	853e                	mv	a0,a5
    1ec6:	00005097          	auipc	ra,0x5
    1eca:	482080e7          	jalr	1154(ra) # 7348 <exit>
  } else {
    printf("%s: fork() failed\n", s);
    1ece:	fb843583          	ld	a1,-72(s0)
    1ed2:	00007517          	auipc	a0,0x7
    1ed6:	97650513          	addi	a0,a0,-1674 # 8848 <malloc+0xdd8>
    1eda:	00006097          	auipc	ra,0x6
    1ede:	9a4080e7          	jalr	-1628(ra) # 787e <printf>
    exit(1);
    1ee2:	4505                	li	a0,1
    1ee4:	00005097          	auipc	ra,0x5
    1ee8:	464080e7          	jalr	1124(ra) # 7348 <exit>
  }
}
    1eec:	60a6                	ld	ra,72(sp)
    1eee:	6406                	ld	s0,64(sp)
    1ef0:	6161                	addi	sp,sp,80
    1ef2:	8082                	ret

0000000000001ef4 <killstatus>:


// test if child is killed (status = -1)
void
killstatus(char *s)
{
    1ef4:	7179                	addi	sp,sp,-48
    1ef6:	f406                	sd	ra,40(sp)
    1ef8:	f022                	sd	s0,32(sp)
    1efa:	1800                	addi	s0,sp,48
    1efc:	fca43c23          	sd	a0,-40(s0)
  int xst;
  
  for(int i = 0; i < 100; i++){
    1f00:	fe042623          	sw	zero,-20(s0)
    1f04:	a055                	j	1fa8 <killstatus+0xb4>
    int pid1 = fork();
    1f06:	00005097          	auipc	ra,0x5
    1f0a:	43a080e7          	jalr	1082(ra) # 7340 <fork>
    1f0e:	87aa                	mv	a5,a0
    1f10:	fef42423          	sw	a5,-24(s0)
    if(pid1 < 0){
    1f14:	fe842783          	lw	a5,-24(s0)
    1f18:	2781                	sext.w	a5,a5
    1f1a:	0207d163          	bgez	a5,1f3c <killstatus+0x48>
      printf("%s: fork failed\n", s);
    1f1e:	fd843583          	ld	a1,-40(s0)
    1f22:	00006517          	auipc	a0,0x6
    1f26:	42650513          	addi	a0,a0,1062 # 8348 <malloc+0x8d8>
    1f2a:	00006097          	auipc	ra,0x6
    1f2e:	954080e7          	jalr	-1708(ra) # 787e <printf>
      exit(1);
    1f32:	4505                	li	a0,1
    1f34:	00005097          	auipc	ra,0x5
    1f38:	414080e7          	jalr	1044(ra) # 7348 <exit>
    }
    if(pid1 == 0){
    1f3c:	fe842783          	lw	a5,-24(s0)
    1f40:	2781                	sext.w	a5,a5
    1f42:	e791                	bnez	a5,1f4e <killstatus+0x5a>
      while(1) {
        getpid();
    1f44:	00005097          	auipc	ra,0x5
    1f48:	484080e7          	jalr	1156(ra) # 73c8 <getpid>
    1f4c:	bfe5                	j	1f44 <killstatus+0x50>
      }
      exit(0);
    }
    sleep(1);
    1f4e:	4505                	li	a0,1
    1f50:	00005097          	auipc	ra,0x5
    1f54:	488080e7          	jalr	1160(ra) # 73d8 <sleep>
    kill(pid1);
    1f58:	fe842783          	lw	a5,-24(s0)
    1f5c:	853e                	mv	a0,a5
    1f5e:	00005097          	auipc	ra,0x5
    1f62:	41a080e7          	jalr	1050(ra) # 7378 <kill>
    wait(&xst);
    1f66:	fe440793          	addi	a5,s0,-28
    1f6a:	853e                	mv	a0,a5
    1f6c:	00005097          	auipc	ra,0x5
    1f70:	3e4080e7          	jalr	996(ra) # 7350 <wait>
    if(xst != -1) {
    1f74:	fe442783          	lw	a5,-28(s0)
    1f78:	873e                	mv	a4,a5
    1f7a:	57fd                	li	a5,-1
    1f7c:	02f70163          	beq	a4,a5,1f9e <killstatus+0xaa>
       printf("%s: status should be -1\n", s);
    1f80:	fd843583          	ld	a1,-40(s0)
    1f84:	00007517          	auipc	a0,0x7
    1f88:	8dc50513          	addi	a0,a0,-1828 # 8860 <malloc+0xdf0>
    1f8c:	00006097          	auipc	ra,0x6
    1f90:	8f2080e7          	jalr	-1806(ra) # 787e <printf>
       exit(1);
    1f94:	4505                	li	a0,1
    1f96:	00005097          	auipc	ra,0x5
    1f9a:	3b2080e7          	jalr	946(ra) # 7348 <exit>
  for(int i = 0; i < 100; i++){
    1f9e:	fec42783          	lw	a5,-20(s0)
    1fa2:	2785                	addiw	a5,a5,1
    1fa4:	fef42623          	sw	a5,-20(s0)
    1fa8:	fec42783          	lw	a5,-20(s0)
    1fac:	0007871b          	sext.w	a4,a5
    1fb0:	06300793          	li	a5,99
    1fb4:	f4e7d9e3          	bge	a5,a4,1f06 <killstatus+0x12>
    }
  }
  exit(0);
    1fb8:	4501                	li	a0,0
    1fba:	00005097          	auipc	ra,0x5
    1fbe:	38e080e7          	jalr	910(ra) # 7348 <exit>

0000000000001fc2 <preempt>:
}

// meant to be run w/ at most two CPUs
void
preempt(char *s)
{
    1fc2:	7139                	addi	sp,sp,-64
    1fc4:	fc06                	sd	ra,56(sp)
    1fc6:	f822                	sd	s0,48(sp)
    1fc8:	0080                	addi	s0,sp,64
    1fca:	fca43423          	sd	a0,-56(s0)
  int pid1, pid2, pid3;
  int pfds[2];

  pid1 = fork();
    1fce:	00005097          	auipc	ra,0x5
    1fd2:	372080e7          	jalr	882(ra) # 7340 <fork>
    1fd6:	87aa                	mv	a5,a0
    1fd8:	fef42623          	sw	a5,-20(s0)
  if(pid1 < 0) {
    1fdc:	fec42783          	lw	a5,-20(s0)
    1fe0:	2781                	sext.w	a5,a5
    1fe2:	0207d163          	bgez	a5,2004 <preempt+0x42>
    printf("%s: fork failed", s);
    1fe6:	fc843583          	ld	a1,-56(s0)
    1fea:	00007517          	auipc	a0,0x7
    1fee:	89650513          	addi	a0,a0,-1898 # 8880 <malloc+0xe10>
    1ff2:	00006097          	auipc	ra,0x6
    1ff6:	88c080e7          	jalr	-1908(ra) # 787e <printf>
    exit(1);
    1ffa:	4505                	li	a0,1
    1ffc:	00005097          	auipc	ra,0x5
    2000:	34c080e7          	jalr	844(ra) # 7348 <exit>
  }
  if(pid1 == 0)
    2004:	fec42783          	lw	a5,-20(s0)
    2008:	2781                	sext.w	a5,a5
    200a:	e391                	bnez	a5,200e <preempt+0x4c>
    for(;;)
    200c:	a001                	j	200c <preempt+0x4a>
      ;

  pid2 = fork();
    200e:	00005097          	auipc	ra,0x5
    2012:	332080e7          	jalr	818(ra) # 7340 <fork>
    2016:	87aa                	mv	a5,a0
    2018:	fef42423          	sw	a5,-24(s0)
  if(pid2 < 0) {
    201c:	fe842783          	lw	a5,-24(s0)
    2020:	2781                	sext.w	a5,a5
    2022:	0207d163          	bgez	a5,2044 <preempt+0x82>
    printf("%s: fork failed\n", s);
    2026:	fc843583          	ld	a1,-56(s0)
    202a:	00006517          	auipc	a0,0x6
    202e:	31e50513          	addi	a0,a0,798 # 8348 <malloc+0x8d8>
    2032:	00006097          	auipc	ra,0x6
    2036:	84c080e7          	jalr	-1972(ra) # 787e <printf>
    exit(1);
    203a:	4505                	li	a0,1
    203c:	00005097          	auipc	ra,0x5
    2040:	30c080e7          	jalr	780(ra) # 7348 <exit>
  }
  if(pid2 == 0)
    2044:	fe842783          	lw	a5,-24(s0)
    2048:	2781                	sext.w	a5,a5
    204a:	e391                	bnez	a5,204e <preempt+0x8c>
    for(;;)
    204c:	a001                	j	204c <preempt+0x8a>
      ;

  pipe(pfds);
    204e:	fd840793          	addi	a5,s0,-40
    2052:	853e                	mv	a0,a5
    2054:	00005097          	auipc	ra,0x5
    2058:	304080e7          	jalr	772(ra) # 7358 <pipe>
  pid3 = fork();
    205c:	00005097          	auipc	ra,0x5
    2060:	2e4080e7          	jalr	740(ra) # 7340 <fork>
    2064:	87aa                	mv	a5,a0
    2066:	fef42223          	sw	a5,-28(s0)
  if(pid3 < 0) {
    206a:	fe442783          	lw	a5,-28(s0)
    206e:	2781                	sext.w	a5,a5
    2070:	0207d163          	bgez	a5,2092 <preempt+0xd0>
     printf("%s: fork failed\n", s);
    2074:	fc843583          	ld	a1,-56(s0)
    2078:	00006517          	auipc	a0,0x6
    207c:	2d050513          	addi	a0,a0,720 # 8348 <malloc+0x8d8>
    2080:	00005097          	auipc	ra,0x5
    2084:	7fe080e7          	jalr	2046(ra) # 787e <printf>
     exit(1);
    2088:	4505                	li	a0,1
    208a:	00005097          	auipc	ra,0x5
    208e:	2be080e7          	jalr	702(ra) # 7348 <exit>
  }
  if(pid3 == 0){
    2092:	fe442783          	lw	a5,-28(s0)
    2096:	2781                	sext.w	a5,a5
    2098:	ebb9                	bnez	a5,20ee <preempt+0x12c>
    close(pfds[0]);
    209a:	fd842783          	lw	a5,-40(s0)
    209e:	853e                	mv	a0,a5
    20a0:	00005097          	auipc	ra,0x5
    20a4:	2d0080e7          	jalr	720(ra) # 7370 <close>
    if(write(pfds[1], "x", 1) != 1)
    20a8:	fdc42783          	lw	a5,-36(s0)
    20ac:	4605                	li	a2,1
    20ae:	00006597          	auipc	a1,0x6
    20b2:	f7258593          	addi	a1,a1,-142 # 8020 <malloc+0x5b0>
    20b6:	853e                	mv	a0,a5
    20b8:	00005097          	auipc	ra,0x5
    20bc:	2b0080e7          	jalr	688(ra) # 7368 <write>
    20c0:	87aa                	mv	a5,a0
    20c2:	873e                	mv	a4,a5
    20c4:	4785                	li	a5,1
    20c6:	00f70c63          	beq	a4,a5,20de <preempt+0x11c>
      printf("%s: preempt write error", s);
    20ca:	fc843583          	ld	a1,-56(s0)
    20ce:	00006517          	auipc	a0,0x6
    20d2:	7c250513          	addi	a0,a0,1986 # 8890 <malloc+0xe20>
    20d6:	00005097          	auipc	ra,0x5
    20da:	7a8080e7          	jalr	1960(ra) # 787e <printf>
    close(pfds[1]);
    20de:	fdc42783          	lw	a5,-36(s0)
    20e2:	853e                	mv	a0,a5
    20e4:	00005097          	auipc	ra,0x5
    20e8:	28c080e7          	jalr	652(ra) # 7370 <close>
    for(;;)
    20ec:	a001                	j	20ec <preempt+0x12a>
      ;
  }

  close(pfds[1]);
    20ee:	fdc42783          	lw	a5,-36(s0)
    20f2:	853e                	mv	a0,a5
    20f4:	00005097          	auipc	ra,0x5
    20f8:	27c080e7          	jalr	636(ra) # 7370 <close>
  if(read(pfds[0], buf, sizeof(buf)) != 1){
    20fc:	fd842783          	lw	a5,-40(s0)
    2100:	660d                	lui	a2,0x3
    2102:	00008597          	auipc	a1,0x8
    2106:	30658593          	addi	a1,a1,774 # a408 <buf>
    210a:	853e                	mv	a0,a5
    210c:	00005097          	auipc	ra,0x5
    2110:	254080e7          	jalr	596(ra) # 7360 <read>
    2114:	87aa                	mv	a5,a0
    2116:	873e                	mv	a4,a5
    2118:	4785                	li	a5,1
    211a:	00f70d63          	beq	a4,a5,2134 <preempt+0x172>
    printf("%s: preempt read error", s);
    211e:	fc843583          	ld	a1,-56(s0)
    2122:	00006517          	auipc	a0,0x6
    2126:	78650513          	addi	a0,a0,1926 # 88a8 <malloc+0xe38>
    212a:	00005097          	auipc	ra,0x5
    212e:	754080e7          	jalr	1876(ra) # 787e <printf>
    2132:	a8a5                	j	21aa <preempt+0x1e8>
    return;
  }
  close(pfds[0]);
    2134:	fd842783          	lw	a5,-40(s0)
    2138:	853e                	mv	a0,a5
    213a:	00005097          	auipc	ra,0x5
    213e:	236080e7          	jalr	566(ra) # 7370 <close>
  printf("kill... ");
    2142:	00006517          	auipc	a0,0x6
    2146:	77e50513          	addi	a0,a0,1918 # 88c0 <malloc+0xe50>
    214a:	00005097          	auipc	ra,0x5
    214e:	734080e7          	jalr	1844(ra) # 787e <printf>
  kill(pid1);
    2152:	fec42783          	lw	a5,-20(s0)
    2156:	853e                	mv	a0,a5
    2158:	00005097          	auipc	ra,0x5
    215c:	220080e7          	jalr	544(ra) # 7378 <kill>
  kill(pid2);
    2160:	fe842783          	lw	a5,-24(s0)
    2164:	853e                	mv	a0,a5
    2166:	00005097          	auipc	ra,0x5
    216a:	212080e7          	jalr	530(ra) # 7378 <kill>
  kill(pid3);
    216e:	fe442783          	lw	a5,-28(s0)
    2172:	853e                	mv	a0,a5
    2174:	00005097          	auipc	ra,0x5
    2178:	204080e7          	jalr	516(ra) # 7378 <kill>
  printf("wait... ");
    217c:	00006517          	auipc	a0,0x6
    2180:	75450513          	addi	a0,a0,1876 # 88d0 <malloc+0xe60>
    2184:	00005097          	auipc	ra,0x5
    2188:	6fa080e7          	jalr	1786(ra) # 787e <printf>
  wait(0);
    218c:	4501                	li	a0,0
    218e:	00005097          	auipc	ra,0x5
    2192:	1c2080e7          	jalr	450(ra) # 7350 <wait>
  wait(0);
    2196:	4501                	li	a0,0
    2198:	00005097          	auipc	ra,0x5
    219c:	1b8080e7          	jalr	440(ra) # 7350 <wait>
  wait(0);
    21a0:	4501                	li	a0,0
    21a2:	00005097          	auipc	ra,0x5
    21a6:	1ae080e7          	jalr	430(ra) # 7350 <wait>
}
    21aa:	70e2                	ld	ra,56(sp)
    21ac:	7442                	ld	s0,48(sp)
    21ae:	6121                	addi	sp,sp,64
    21b0:	8082                	ret

00000000000021b2 <exitwait>:

// try to find any races between exit and wait
void
exitwait(char *s)
{
    21b2:	7179                	addi	sp,sp,-48
    21b4:	f406                	sd	ra,40(sp)
    21b6:	f022                	sd	s0,32(sp)
    21b8:	1800                	addi	s0,sp,48
    21ba:	fca43c23          	sd	a0,-40(s0)
  int i, pid;

  for(i = 0; i < 100; i++){
    21be:	fe042623          	sw	zero,-20(s0)
    21c2:	a87d                	j	2280 <exitwait+0xce>
    pid = fork();
    21c4:	00005097          	auipc	ra,0x5
    21c8:	17c080e7          	jalr	380(ra) # 7340 <fork>
    21cc:	87aa                	mv	a5,a0
    21ce:	fef42423          	sw	a5,-24(s0)
    if(pid < 0){
    21d2:	fe842783          	lw	a5,-24(s0)
    21d6:	2781                	sext.w	a5,a5
    21d8:	0207d163          	bgez	a5,21fa <exitwait+0x48>
      printf("%s: fork failed\n", s);
    21dc:	fd843583          	ld	a1,-40(s0)
    21e0:	00006517          	auipc	a0,0x6
    21e4:	16850513          	addi	a0,a0,360 # 8348 <malloc+0x8d8>
    21e8:	00005097          	auipc	ra,0x5
    21ec:	696080e7          	jalr	1686(ra) # 787e <printf>
      exit(1);
    21f0:	4505                	li	a0,1
    21f2:	00005097          	auipc	ra,0x5
    21f6:	156080e7          	jalr	342(ra) # 7348 <exit>
    }
    if(pid){
    21fa:	fe842783          	lw	a5,-24(s0)
    21fe:	2781                	sext.w	a5,a5
    2200:	c7a5                	beqz	a5,2268 <exitwait+0xb6>
      int xstate;
      if(wait(&xstate) != pid){
    2202:	fe440793          	addi	a5,s0,-28
    2206:	853e                	mv	a0,a5
    2208:	00005097          	auipc	ra,0x5
    220c:	148080e7          	jalr	328(ra) # 7350 <wait>
    2210:	87aa                	mv	a5,a0
    2212:	873e                	mv	a4,a5
    2214:	fe842783          	lw	a5,-24(s0)
    2218:	2781                	sext.w	a5,a5
    221a:	02e78163          	beq	a5,a4,223c <exitwait+0x8a>
        printf("%s: wait wrong pid\n", s);
    221e:	fd843583          	ld	a1,-40(s0)
    2222:	00006517          	auipc	a0,0x6
    2226:	6be50513          	addi	a0,a0,1726 # 88e0 <malloc+0xe70>
    222a:	00005097          	auipc	ra,0x5
    222e:	654080e7          	jalr	1620(ra) # 787e <printf>
        exit(1);
    2232:	4505                	li	a0,1
    2234:	00005097          	auipc	ra,0x5
    2238:	114080e7          	jalr	276(ra) # 7348 <exit>
      }
      if(i != xstate) {
    223c:	fe442703          	lw	a4,-28(s0)
    2240:	fec42783          	lw	a5,-20(s0)
    2244:	2781                	sext.w	a5,a5
    2246:	02e78863          	beq	a5,a4,2276 <exitwait+0xc4>
        printf("%s: wait wrong exit status\n", s);
    224a:	fd843583          	ld	a1,-40(s0)
    224e:	00006517          	auipc	a0,0x6
    2252:	6aa50513          	addi	a0,a0,1706 # 88f8 <malloc+0xe88>
    2256:	00005097          	auipc	ra,0x5
    225a:	628080e7          	jalr	1576(ra) # 787e <printf>
        exit(1);
    225e:	4505                	li	a0,1
    2260:	00005097          	auipc	ra,0x5
    2264:	0e8080e7          	jalr	232(ra) # 7348 <exit>
      }
    } else {
      exit(i);
    2268:	fec42783          	lw	a5,-20(s0)
    226c:	853e                	mv	a0,a5
    226e:	00005097          	auipc	ra,0x5
    2272:	0da080e7          	jalr	218(ra) # 7348 <exit>
  for(i = 0; i < 100; i++){
    2276:	fec42783          	lw	a5,-20(s0)
    227a:	2785                	addiw	a5,a5,1
    227c:	fef42623          	sw	a5,-20(s0)
    2280:	fec42783          	lw	a5,-20(s0)
    2284:	0007871b          	sext.w	a4,a5
    2288:	06300793          	li	a5,99
    228c:	f2e7dce3          	bge	a5,a4,21c4 <exitwait+0x12>
    }
  }
}
    2290:	0001                	nop
    2292:	0001                	nop
    2294:	70a2                	ld	ra,40(sp)
    2296:	7402                	ld	s0,32(sp)
    2298:	6145                	addi	sp,sp,48
    229a:	8082                	ret

000000000000229c <reparent>:
// try to find races in the reparenting
// code that handles a parent exiting
// when it still has live children.
void
reparent(char *s)
{
    229c:	7179                	addi	sp,sp,-48
    229e:	f406                	sd	ra,40(sp)
    22a0:	f022                	sd	s0,32(sp)
    22a2:	1800                	addi	s0,sp,48
    22a4:	fca43c23          	sd	a0,-40(s0)
  int master_pid = getpid();
    22a8:	00005097          	auipc	ra,0x5
    22ac:	120080e7          	jalr	288(ra) # 73c8 <getpid>
    22b0:	87aa                	mv	a5,a0
    22b2:	fef42423          	sw	a5,-24(s0)
  for(int i = 0; i < 200; i++){
    22b6:	fe042623          	sw	zero,-20(s0)
    22ba:	a86d                	j	2374 <reparent+0xd8>
    int pid = fork();
    22bc:	00005097          	auipc	ra,0x5
    22c0:	084080e7          	jalr	132(ra) # 7340 <fork>
    22c4:	87aa                	mv	a5,a0
    22c6:	fef42223          	sw	a5,-28(s0)
    if(pid < 0){
    22ca:	fe442783          	lw	a5,-28(s0)
    22ce:	2781                	sext.w	a5,a5
    22d0:	0207d163          	bgez	a5,22f2 <reparent+0x56>
      printf("%s: fork failed\n", s);
    22d4:	fd843583          	ld	a1,-40(s0)
    22d8:	00006517          	auipc	a0,0x6
    22dc:	07050513          	addi	a0,a0,112 # 8348 <malloc+0x8d8>
    22e0:	00005097          	auipc	ra,0x5
    22e4:	59e080e7          	jalr	1438(ra) # 787e <printf>
      exit(1);
    22e8:	4505                	li	a0,1
    22ea:	00005097          	auipc	ra,0x5
    22ee:	05e080e7          	jalr	94(ra) # 7348 <exit>
    }
    if(pid){
    22f2:	fe442783          	lw	a5,-28(s0)
    22f6:	2781                	sext.w	a5,a5
    22f8:	cf85                	beqz	a5,2330 <reparent+0x94>
      if(wait(0) != pid){
    22fa:	4501                	li	a0,0
    22fc:	00005097          	auipc	ra,0x5
    2300:	054080e7          	jalr	84(ra) # 7350 <wait>
    2304:	87aa                	mv	a5,a0
    2306:	873e                	mv	a4,a5
    2308:	fe442783          	lw	a5,-28(s0)
    230c:	2781                	sext.w	a5,a5
    230e:	04e78e63          	beq	a5,a4,236a <reparent+0xce>
        printf("%s: wait wrong pid\n", s);
    2312:	fd843583          	ld	a1,-40(s0)
    2316:	00006517          	auipc	a0,0x6
    231a:	5ca50513          	addi	a0,a0,1482 # 88e0 <malloc+0xe70>
    231e:	00005097          	auipc	ra,0x5
    2322:	560080e7          	jalr	1376(ra) # 787e <printf>
        exit(1);
    2326:	4505                	li	a0,1
    2328:	00005097          	auipc	ra,0x5
    232c:	020080e7          	jalr	32(ra) # 7348 <exit>
      }
    } else {
      int pid2 = fork();
    2330:	00005097          	auipc	ra,0x5
    2334:	010080e7          	jalr	16(ra) # 7340 <fork>
    2338:	87aa                	mv	a5,a0
    233a:	fef42023          	sw	a5,-32(s0)
      if(pid2 < 0){
    233e:	fe042783          	lw	a5,-32(s0)
    2342:	2781                	sext.w	a5,a5
    2344:	0007de63          	bgez	a5,2360 <reparent+0xc4>
        kill(master_pid);
    2348:	fe842783          	lw	a5,-24(s0)
    234c:	853e                	mv	a0,a5
    234e:	00005097          	auipc	ra,0x5
    2352:	02a080e7          	jalr	42(ra) # 7378 <kill>
        exit(1);
    2356:	4505                	li	a0,1
    2358:	00005097          	auipc	ra,0x5
    235c:	ff0080e7          	jalr	-16(ra) # 7348 <exit>
      }
      exit(0);
    2360:	4501                	li	a0,0
    2362:	00005097          	auipc	ra,0x5
    2366:	fe6080e7          	jalr	-26(ra) # 7348 <exit>
  for(int i = 0; i < 200; i++){
    236a:	fec42783          	lw	a5,-20(s0)
    236e:	2785                	addiw	a5,a5,1
    2370:	fef42623          	sw	a5,-20(s0)
    2374:	fec42783          	lw	a5,-20(s0)
    2378:	0007871b          	sext.w	a4,a5
    237c:	0c700793          	li	a5,199
    2380:	f2e7dee3          	bge	a5,a4,22bc <reparent+0x20>
    }
  }
  exit(0);
    2384:	4501                	li	a0,0
    2386:	00005097          	auipc	ra,0x5
    238a:	fc2080e7          	jalr	-62(ra) # 7348 <exit>

000000000000238e <twochildren>:
}

// what if two children exit() at the same time?
void
twochildren(char *s)
{
    238e:	7179                	addi	sp,sp,-48
    2390:	f406                	sd	ra,40(sp)
    2392:	f022                	sd	s0,32(sp)
    2394:	1800                	addi	s0,sp,48
    2396:	fca43c23          	sd	a0,-40(s0)
  for(int i = 0; i < 1000; i++){
    239a:	fe042623          	sw	zero,-20(s0)
    239e:	a845                	j	244e <twochildren+0xc0>
    int pid1 = fork();
    23a0:	00005097          	auipc	ra,0x5
    23a4:	fa0080e7          	jalr	-96(ra) # 7340 <fork>
    23a8:	87aa                	mv	a5,a0
    23aa:	fef42423          	sw	a5,-24(s0)
    if(pid1 < 0){
    23ae:	fe842783          	lw	a5,-24(s0)
    23b2:	2781                	sext.w	a5,a5
    23b4:	0207d163          	bgez	a5,23d6 <twochildren+0x48>
      printf("%s: fork failed\n", s);
    23b8:	fd843583          	ld	a1,-40(s0)
    23bc:	00006517          	auipc	a0,0x6
    23c0:	f8c50513          	addi	a0,a0,-116 # 8348 <malloc+0x8d8>
    23c4:	00005097          	auipc	ra,0x5
    23c8:	4ba080e7          	jalr	1210(ra) # 787e <printf>
      exit(1);
    23cc:	4505                	li	a0,1
    23ce:	00005097          	auipc	ra,0x5
    23d2:	f7a080e7          	jalr	-134(ra) # 7348 <exit>
    }
    if(pid1 == 0){
    23d6:	fe842783          	lw	a5,-24(s0)
    23da:	2781                	sext.w	a5,a5
    23dc:	e791                	bnez	a5,23e8 <twochildren+0x5a>
      exit(0);
    23de:	4501                	li	a0,0
    23e0:	00005097          	auipc	ra,0x5
    23e4:	f68080e7          	jalr	-152(ra) # 7348 <exit>
    } else {
      int pid2 = fork();
    23e8:	00005097          	auipc	ra,0x5
    23ec:	f58080e7          	jalr	-168(ra) # 7340 <fork>
    23f0:	87aa                	mv	a5,a0
    23f2:	fef42223          	sw	a5,-28(s0)
      if(pid2 < 0){
    23f6:	fe442783          	lw	a5,-28(s0)
    23fa:	2781                	sext.w	a5,a5
    23fc:	0207d163          	bgez	a5,241e <twochildren+0x90>
        printf("%s: fork failed\n", s);
    2400:	fd843583          	ld	a1,-40(s0)
    2404:	00006517          	auipc	a0,0x6
    2408:	f4450513          	addi	a0,a0,-188 # 8348 <malloc+0x8d8>
    240c:	00005097          	auipc	ra,0x5
    2410:	472080e7          	jalr	1138(ra) # 787e <printf>
        exit(1);
    2414:	4505                	li	a0,1
    2416:	00005097          	auipc	ra,0x5
    241a:	f32080e7          	jalr	-206(ra) # 7348 <exit>
      }
      if(pid2 == 0){
    241e:	fe442783          	lw	a5,-28(s0)
    2422:	2781                	sext.w	a5,a5
    2424:	e791                	bnez	a5,2430 <twochildren+0xa2>
        exit(0);
    2426:	4501                	li	a0,0
    2428:	00005097          	auipc	ra,0x5
    242c:	f20080e7          	jalr	-224(ra) # 7348 <exit>
      } else {
        wait(0);
    2430:	4501                	li	a0,0
    2432:	00005097          	auipc	ra,0x5
    2436:	f1e080e7          	jalr	-226(ra) # 7350 <wait>
        wait(0);
    243a:	4501                	li	a0,0
    243c:	00005097          	auipc	ra,0x5
    2440:	f14080e7          	jalr	-236(ra) # 7350 <wait>
  for(int i = 0; i < 1000; i++){
    2444:	fec42783          	lw	a5,-20(s0)
    2448:	2785                	addiw	a5,a5,1
    244a:	fef42623          	sw	a5,-20(s0)
    244e:	fec42783          	lw	a5,-20(s0)
    2452:	0007871b          	sext.w	a4,a5
    2456:	3e700793          	li	a5,999
    245a:	f4e7d3e3          	bge	a5,a4,23a0 <twochildren+0x12>
      }
    }
  }
}
    245e:	0001                	nop
    2460:	0001                	nop
    2462:	70a2                	ld	ra,40(sp)
    2464:	7402                	ld	s0,32(sp)
    2466:	6145                	addi	sp,sp,48
    2468:	8082                	ret

000000000000246a <forkfork>:

// concurrent forks to try to expose locking bugs.
void
forkfork(char *s)
{
    246a:	7139                	addi	sp,sp,-64
    246c:	fc06                	sd	ra,56(sp)
    246e:	f822                	sd	s0,48(sp)
    2470:	0080                	addi	s0,sp,64
    2472:	fca43423          	sd	a0,-56(s0)
  enum { N=2 };
  
  for(int i = 0; i < N; i++){
    2476:	fe042623          	sw	zero,-20(s0)
    247a:	a84d                	j	252c <forkfork+0xc2>
    int pid = fork();
    247c:	00005097          	auipc	ra,0x5
    2480:	ec4080e7          	jalr	-316(ra) # 7340 <fork>
    2484:	87aa                	mv	a5,a0
    2486:	fef42023          	sw	a5,-32(s0)
    if(pid < 0){
    248a:	fe042783          	lw	a5,-32(s0)
    248e:	2781                	sext.w	a5,a5
    2490:	0207d163          	bgez	a5,24b2 <forkfork+0x48>
      printf("%s: fork failed", s);
    2494:	fc843583          	ld	a1,-56(s0)
    2498:	00006517          	auipc	a0,0x6
    249c:	3e850513          	addi	a0,a0,1000 # 8880 <malloc+0xe10>
    24a0:	00005097          	auipc	ra,0x5
    24a4:	3de080e7          	jalr	990(ra) # 787e <printf>
      exit(1);
    24a8:	4505                	li	a0,1
    24aa:	00005097          	auipc	ra,0x5
    24ae:	e9e080e7          	jalr	-354(ra) # 7348 <exit>
    }
    if(pid == 0){
    24b2:	fe042783          	lw	a5,-32(s0)
    24b6:	2781                	sext.w	a5,a5
    24b8:	e7ad                	bnez	a5,2522 <forkfork+0xb8>
      for(int j = 0; j < 200; j++){
    24ba:	fe042423          	sw	zero,-24(s0)
    24be:	a0a9                	j	2508 <forkfork+0x9e>
        int pid1 = fork();
    24c0:	00005097          	auipc	ra,0x5
    24c4:	e80080e7          	jalr	-384(ra) # 7340 <fork>
    24c8:	87aa                	mv	a5,a0
    24ca:	fcf42e23          	sw	a5,-36(s0)
        if(pid1 < 0){
    24ce:	fdc42783          	lw	a5,-36(s0)
    24d2:	2781                	sext.w	a5,a5
    24d4:	0007d763          	bgez	a5,24e2 <forkfork+0x78>
          exit(1);
    24d8:	4505                	li	a0,1
    24da:	00005097          	auipc	ra,0x5
    24de:	e6e080e7          	jalr	-402(ra) # 7348 <exit>
        }
        if(pid1 == 0){
    24e2:	fdc42783          	lw	a5,-36(s0)
    24e6:	2781                	sext.w	a5,a5
    24e8:	e791                	bnez	a5,24f4 <forkfork+0x8a>
          exit(0);
    24ea:	4501                	li	a0,0
    24ec:	00005097          	auipc	ra,0x5
    24f0:	e5c080e7          	jalr	-420(ra) # 7348 <exit>
        }
        wait(0);
    24f4:	4501                	li	a0,0
    24f6:	00005097          	auipc	ra,0x5
    24fa:	e5a080e7          	jalr	-422(ra) # 7350 <wait>
      for(int j = 0; j < 200; j++){
    24fe:	fe842783          	lw	a5,-24(s0)
    2502:	2785                	addiw	a5,a5,1
    2504:	fef42423          	sw	a5,-24(s0)
    2508:	fe842783          	lw	a5,-24(s0)
    250c:	0007871b          	sext.w	a4,a5
    2510:	0c700793          	li	a5,199
    2514:	fae7d6e3          	bge	a5,a4,24c0 <forkfork+0x56>
      }
      exit(0);
    2518:	4501                	li	a0,0
    251a:	00005097          	auipc	ra,0x5
    251e:	e2e080e7          	jalr	-466(ra) # 7348 <exit>
  for(int i = 0; i < N; i++){
    2522:	fec42783          	lw	a5,-20(s0)
    2526:	2785                	addiw	a5,a5,1
    2528:	fef42623          	sw	a5,-20(s0)
    252c:	fec42783          	lw	a5,-20(s0)
    2530:	0007871b          	sext.w	a4,a5
    2534:	4785                	li	a5,1
    2536:	f4e7d3e3          	bge	a5,a4,247c <forkfork+0x12>
    }
  }

  int xstatus;
  for(int i = 0; i < N; i++){
    253a:	fe042223          	sw	zero,-28(s0)
    253e:	a83d                	j	257c <forkfork+0x112>
    wait(&xstatus);
    2540:	fd840793          	addi	a5,s0,-40
    2544:	853e                	mv	a0,a5
    2546:	00005097          	auipc	ra,0x5
    254a:	e0a080e7          	jalr	-502(ra) # 7350 <wait>
    if(xstatus != 0) {
    254e:	fd842783          	lw	a5,-40(s0)
    2552:	c385                	beqz	a5,2572 <forkfork+0x108>
      printf("%s: fork in child failed", s);
    2554:	fc843583          	ld	a1,-56(s0)
    2558:	00006517          	auipc	a0,0x6
    255c:	3c050513          	addi	a0,a0,960 # 8918 <malloc+0xea8>
    2560:	00005097          	auipc	ra,0x5
    2564:	31e080e7          	jalr	798(ra) # 787e <printf>
      exit(1);
    2568:	4505                	li	a0,1
    256a:	00005097          	auipc	ra,0x5
    256e:	dde080e7          	jalr	-546(ra) # 7348 <exit>
  for(int i = 0; i < N; i++){
    2572:	fe442783          	lw	a5,-28(s0)
    2576:	2785                	addiw	a5,a5,1
    2578:	fef42223          	sw	a5,-28(s0)
    257c:	fe442783          	lw	a5,-28(s0)
    2580:	0007871b          	sext.w	a4,a5
    2584:	4785                	li	a5,1
    2586:	fae7dde3          	bge	a5,a4,2540 <forkfork+0xd6>
    }
  }
}
    258a:	0001                	nop
    258c:	0001                	nop
    258e:	70e2                	ld	ra,56(sp)
    2590:	7442                	ld	s0,48(sp)
    2592:	6121                	addi	sp,sp,64
    2594:	8082                	ret

0000000000002596 <forkforkfork>:

void
forkforkfork(char *s)
{
    2596:	7179                	addi	sp,sp,-48
    2598:	f406                	sd	ra,40(sp)
    259a:	f022                	sd	s0,32(sp)
    259c:	1800                	addi	s0,sp,48
    259e:	fca43c23          	sd	a0,-40(s0)
  unlink("stopforking");
    25a2:	00006517          	auipc	a0,0x6
    25a6:	39650513          	addi	a0,a0,918 # 8938 <malloc+0xec8>
    25aa:	00005097          	auipc	ra,0x5
    25ae:	dee080e7          	jalr	-530(ra) # 7398 <unlink>

  int pid = fork();
    25b2:	00005097          	auipc	ra,0x5
    25b6:	d8e080e7          	jalr	-626(ra) # 7340 <fork>
    25ba:	87aa                	mv	a5,a0
    25bc:	fef42623          	sw	a5,-20(s0)
  if(pid < 0){
    25c0:	fec42783          	lw	a5,-20(s0)
    25c4:	2781                	sext.w	a5,a5
    25c6:	0207d163          	bgez	a5,25e8 <forkforkfork+0x52>
    printf("%s: fork failed", s);
    25ca:	fd843583          	ld	a1,-40(s0)
    25ce:	00006517          	auipc	a0,0x6
    25d2:	2b250513          	addi	a0,a0,690 # 8880 <malloc+0xe10>
    25d6:	00005097          	auipc	ra,0x5
    25da:	2a8080e7          	jalr	680(ra) # 787e <printf>
    exit(1);
    25de:	4505                	li	a0,1
    25e0:	00005097          	auipc	ra,0x5
    25e4:	d68080e7          	jalr	-664(ra) # 7348 <exit>
  }
  if(pid == 0){
    25e8:	fec42783          	lw	a5,-20(s0)
    25ec:	2781                	sext.w	a5,a5
    25ee:	efb9                	bnez	a5,264c <forkforkfork+0xb6>
    while(1){
      int fd = open("stopforking", 0);
    25f0:	4581                	li	a1,0
    25f2:	00006517          	auipc	a0,0x6
    25f6:	34650513          	addi	a0,a0,838 # 8938 <malloc+0xec8>
    25fa:	00005097          	auipc	ra,0x5
    25fe:	d8e080e7          	jalr	-626(ra) # 7388 <open>
    2602:	87aa                	mv	a5,a0
    2604:	fef42423          	sw	a5,-24(s0)
      if(fd >= 0){
    2608:	fe842783          	lw	a5,-24(s0)
    260c:	2781                	sext.w	a5,a5
    260e:	0007c763          	bltz	a5,261c <forkforkfork+0x86>
        exit(0);
    2612:	4501                	li	a0,0
    2614:	00005097          	auipc	ra,0x5
    2618:	d34080e7          	jalr	-716(ra) # 7348 <exit>
      }
      if(fork() < 0){
    261c:	00005097          	auipc	ra,0x5
    2620:	d24080e7          	jalr	-732(ra) # 7340 <fork>
    2624:	87aa                	mv	a5,a0
    2626:	fc07d5e3          	bgez	a5,25f0 <forkforkfork+0x5a>
        close(open("stopforking", O_CREATE|O_RDWR));
    262a:	20200593          	li	a1,514
    262e:	00006517          	auipc	a0,0x6
    2632:	30a50513          	addi	a0,a0,778 # 8938 <malloc+0xec8>
    2636:	00005097          	auipc	ra,0x5
    263a:	d52080e7          	jalr	-686(ra) # 7388 <open>
    263e:	87aa                	mv	a5,a0
    2640:	853e                	mv	a0,a5
    2642:	00005097          	auipc	ra,0x5
    2646:	d2e080e7          	jalr	-722(ra) # 7370 <close>
    while(1){
    264a:	b75d                	j	25f0 <forkforkfork+0x5a>
    }

    exit(0);
  }

  sleep(20); // two seconds
    264c:	4551                	li	a0,20
    264e:	00005097          	auipc	ra,0x5
    2652:	d8a080e7          	jalr	-630(ra) # 73d8 <sleep>
  close(open("stopforking", O_CREATE|O_RDWR));
    2656:	20200593          	li	a1,514
    265a:	00006517          	auipc	a0,0x6
    265e:	2de50513          	addi	a0,a0,734 # 8938 <malloc+0xec8>
    2662:	00005097          	auipc	ra,0x5
    2666:	d26080e7          	jalr	-730(ra) # 7388 <open>
    266a:	87aa                	mv	a5,a0
    266c:	853e                	mv	a0,a5
    266e:	00005097          	auipc	ra,0x5
    2672:	d02080e7          	jalr	-766(ra) # 7370 <close>
  wait(0);
    2676:	4501                	li	a0,0
    2678:	00005097          	auipc	ra,0x5
    267c:	cd8080e7          	jalr	-808(ra) # 7350 <wait>
  sleep(10); // one second
    2680:	4529                	li	a0,10
    2682:	00005097          	auipc	ra,0x5
    2686:	d56080e7          	jalr	-682(ra) # 73d8 <sleep>
}
    268a:	0001                	nop
    268c:	70a2                	ld	ra,40(sp)
    268e:	7402                	ld	s0,32(sp)
    2690:	6145                	addi	sp,sp,48
    2692:	8082                	ret

0000000000002694 <reparent2>:
// deadlocks against init's wait()? also used to trigger a "panic:
// release" due to exit() releasing a different p->parent->lock than
// it acquired.
void
reparent2(char *s)
{
    2694:	7179                	addi	sp,sp,-48
    2696:	f406                	sd	ra,40(sp)
    2698:	f022                	sd	s0,32(sp)
    269a:	1800                	addi	s0,sp,48
    269c:	fca43c23          	sd	a0,-40(s0)
  for(int i = 0; i < 800; i++){
    26a0:	fe042623          	sw	zero,-20(s0)
    26a4:	a0ad                	j	270e <reparent2+0x7a>
    int pid1 = fork();
    26a6:	00005097          	auipc	ra,0x5
    26aa:	c9a080e7          	jalr	-870(ra) # 7340 <fork>
    26ae:	87aa                	mv	a5,a0
    26b0:	fef42423          	sw	a5,-24(s0)
    if(pid1 < 0){
    26b4:	fe842783          	lw	a5,-24(s0)
    26b8:	2781                	sext.w	a5,a5
    26ba:	0007df63          	bgez	a5,26d8 <reparent2+0x44>
      printf("fork failed\n");
    26be:	00006517          	auipc	a0,0x6
    26c2:	a6250513          	addi	a0,a0,-1438 # 8120 <malloc+0x6b0>
    26c6:	00005097          	auipc	ra,0x5
    26ca:	1b8080e7          	jalr	440(ra) # 787e <printf>
      exit(1);
    26ce:	4505                	li	a0,1
    26d0:	00005097          	auipc	ra,0x5
    26d4:	c78080e7          	jalr	-904(ra) # 7348 <exit>
    }
    if(pid1 == 0){
    26d8:	fe842783          	lw	a5,-24(s0)
    26dc:	2781                	sext.w	a5,a5
    26de:	ef91                	bnez	a5,26fa <reparent2+0x66>
      fork();
    26e0:	00005097          	auipc	ra,0x5
    26e4:	c60080e7          	jalr	-928(ra) # 7340 <fork>
      fork();
    26e8:	00005097          	auipc	ra,0x5
    26ec:	c58080e7          	jalr	-936(ra) # 7340 <fork>
      exit(0);
    26f0:	4501                	li	a0,0
    26f2:	00005097          	auipc	ra,0x5
    26f6:	c56080e7          	jalr	-938(ra) # 7348 <exit>
    }
    wait(0);
    26fa:	4501                	li	a0,0
    26fc:	00005097          	auipc	ra,0x5
    2700:	c54080e7          	jalr	-940(ra) # 7350 <wait>
  for(int i = 0; i < 800; i++){
    2704:	fec42783          	lw	a5,-20(s0)
    2708:	2785                	addiw	a5,a5,1
    270a:	fef42623          	sw	a5,-20(s0)
    270e:	fec42783          	lw	a5,-20(s0)
    2712:	0007871b          	sext.w	a4,a5
    2716:	31f00793          	li	a5,799
    271a:	f8e7d6e3          	bge	a5,a4,26a6 <reparent2+0x12>
  }

  exit(0);
    271e:	4501                	li	a0,0
    2720:	00005097          	auipc	ra,0x5
    2724:	c28080e7          	jalr	-984(ra) # 7348 <exit>

0000000000002728 <mem>:
}

// allocate all mem, free it, and allocate again
void
mem(char *s)
{
    2728:	7139                	addi	sp,sp,-64
    272a:	fc06                	sd	ra,56(sp)
    272c:	f822                	sd	s0,48(sp)
    272e:	0080                	addi	s0,sp,64
    2730:	fca43423          	sd	a0,-56(s0)
  void *m1, *m2;
  int pid;

  if((pid = fork()) == 0){
    2734:	00005097          	auipc	ra,0x5
    2738:	c0c080e7          	jalr	-1012(ra) # 7340 <fork>
    273c:	87aa                	mv	a5,a0
    273e:	fef42223          	sw	a5,-28(s0)
    2742:	fe442783          	lw	a5,-28(s0)
    2746:	2781                	sext.w	a5,a5
    2748:	e3c5                	bnez	a5,27e8 <mem+0xc0>
    m1 = 0;
    274a:	fe043423          	sd	zero,-24(s0)
    while((m2 = malloc(10001)) != 0){
    274e:	a811                	j	2762 <mem+0x3a>
      *(char**)m2 = m1;
    2750:	fd843783          	ld	a5,-40(s0)
    2754:	fe843703          	ld	a4,-24(s0)
    2758:	e398                	sd	a4,0(a5)
      m1 = m2;
    275a:	fd843783          	ld	a5,-40(s0)
    275e:	fef43423          	sd	a5,-24(s0)
    while((m2 = malloc(10001)) != 0){
    2762:	6789                	lui	a5,0x2
    2764:	71178513          	addi	a0,a5,1809 # 2711 <reparent2+0x7d>
    2768:	00005097          	auipc	ra,0x5
    276c:	308080e7          	jalr	776(ra) # 7a70 <malloc>
    2770:	fca43c23          	sd	a0,-40(s0)
    2774:	fd843783          	ld	a5,-40(s0)
    2778:	ffe1                	bnez	a5,2750 <mem+0x28>
    }
    while(m1){
    277a:	a005                	j	279a <mem+0x72>
      m2 = *(char**)m1;
    277c:	fe843783          	ld	a5,-24(s0)
    2780:	639c                	ld	a5,0(a5)
    2782:	fcf43c23          	sd	a5,-40(s0)
      free(m1);
    2786:	fe843503          	ld	a0,-24(s0)
    278a:	00005097          	auipc	ra,0x5
    278e:	144080e7          	jalr	324(ra) # 78ce <free>
      m1 = m2;
    2792:	fd843783          	ld	a5,-40(s0)
    2796:	fef43423          	sd	a5,-24(s0)
    while(m1){
    279a:	fe843783          	ld	a5,-24(s0)
    279e:	fff9                	bnez	a5,277c <mem+0x54>
    }
    m1 = malloc(1024*20);
    27a0:	6515                	lui	a0,0x5
    27a2:	00005097          	auipc	ra,0x5
    27a6:	2ce080e7          	jalr	718(ra) # 7a70 <malloc>
    27aa:	fea43423          	sd	a0,-24(s0)
    if(m1 == 0){
    27ae:	fe843783          	ld	a5,-24(s0)
    27b2:	e385                	bnez	a5,27d2 <mem+0xaa>
      printf("couldn't allocate mem?!!\n", s);
    27b4:	fc843583          	ld	a1,-56(s0)
    27b8:	00006517          	auipc	a0,0x6
    27bc:	19050513          	addi	a0,a0,400 # 8948 <malloc+0xed8>
    27c0:	00005097          	auipc	ra,0x5
    27c4:	0be080e7          	jalr	190(ra) # 787e <printf>
      exit(1);
    27c8:	4505                	li	a0,1
    27ca:	00005097          	auipc	ra,0x5
    27ce:	b7e080e7          	jalr	-1154(ra) # 7348 <exit>
    }
    free(m1);
    27d2:	fe843503          	ld	a0,-24(s0)
    27d6:	00005097          	auipc	ra,0x5
    27da:	0f8080e7          	jalr	248(ra) # 78ce <free>
    exit(0);
    27de:	4501                	li	a0,0
    27e0:	00005097          	auipc	ra,0x5
    27e4:	b68080e7          	jalr	-1176(ra) # 7348 <exit>
  } else {
    int xstatus;
    wait(&xstatus);
    27e8:	fd440793          	addi	a5,s0,-44
    27ec:	853e                	mv	a0,a5
    27ee:	00005097          	auipc	ra,0x5
    27f2:	b62080e7          	jalr	-1182(ra) # 7350 <wait>
    if(xstatus == -1){
    27f6:	fd442783          	lw	a5,-44(s0)
    27fa:	873e                	mv	a4,a5
    27fc:	57fd                	li	a5,-1
    27fe:	00f71763          	bne	a4,a5,280c <mem+0xe4>
      // probably page fault, so might be lazy lab,
      // so OK.
      exit(0);
    2802:	4501                	li	a0,0
    2804:	00005097          	auipc	ra,0x5
    2808:	b44080e7          	jalr	-1212(ra) # 7348 <exit>
    }
    exit(xstatus);
    280c:	fd442783          	lw	a5,-44(s0)
    2810:	853e                	mv	a0,a5
    2812:	00005097          	auipc	ra,0x5
    2816:	b36080e7          	jalr	-1226(ra) # 7348 <exit>

000000000000281a <sharedfd>:

// two processes write to the same file descriptor
// is the offset shared? does inode locking work?
void
sharedfd(char *s)
{
    281a:	715d                	addi	sp,sp,-80
    281c:	e486                	sd	ra,72(sp)
    281e:	e0a2                	sd	s0,64(sp)
    2820:	0880                	addi	s0,sp,80
    2822:	faa43c23          	sd	a0,-72(s0)
  int fd, pid, i, n, nc, np;
  enum { N = 1000, SZ=10};
  char buf[SZ];

  unlink("sharedfd");
    2826:	00005517          	auipc	a0,0x5
    282a:	53250513          	addi	a0,a0,1330 # 7d58 <malloc+0x2e8>
    282e:	00005097          	auipc	ra,0x5
    2832:	b6a080e7          	jalr	-1174(ra) # 7398 <unlink>
  fd = open("sharedfd", O_CREATE|O_RDWR);
    2836:	20200593          	li	a1,514
    283a:	00005517          	auipc	a0,0x5
    283e:	51e50513          	addi	a0,a0,1310 # 7d58 <malloc+0x2e8>
    2842:	00005097          	auipc	ra,0x5
    2846:	b46080e7          	jalr	-1210(ra) # 7388 <open>
    284a:	87aa                	mv	a5,a0
    284c:	fef42023          	sw	a5,-32(s0)
  if(fd < 0){
    2850:	fe042783          	lw	a5,-32(s0)
    2854:	2781                	sext.w	a5,a5
    2856:	0207d163          	bgez	a5,2878 <sharedfd+0x5e>
    printf("%s: cannot open sharedfd for writing", s);
    285a:	fb843583          	ld	a1,-72(s0)
    285e:	00006517          	auipc	a0,0x6
    2862:	10a50513          	addi	a0,a0,266 # 8968 <malloc+0xef8>
    2866:	00005097          	auipc	ra,0x5
    286a:	018080e7          	jalr	24(ra) # 787e <printf>
    exit(1);
    286e:	4505                	li	a0,1
    2870:	00005097          	auipc	ra,0x5
    2874:	ad8080e7          	jalr	-1320(ra) # 7348 <exit>
  }
  pid = fork();
    2878:	00005097          	auipc	ra,0x5
    287c:	ac8080e7          	jalr	-1336(ra) # 7340 <fork>
    2880:	87aa                	mv	a5,a0
    2882:	fcf42e23          	sw	a5,-36(s0)
  memset(buf, pid==0?'c':'p', sizeof(buf));
    2886:	fdc42783          	lw	a5,-36(s0)
    288a:	2781                	sext.w	a5,a5
    288c:	e781                	bnez	a5,2894 <sharedfd+0x7a>
    288e:	06300793          	li	a5,99
    2892:	a019                	j	2898 <sharedfd+0x7e>
    2894:	07000793          	li	a5,112
    2898:	fc840713          	addi	a4,s0,-56
    289c:	4629                	li	a2,10
    289e:	85be                	mv	a1,a5
    28a0:	853a                	mv	a0,a4
    28a2:	00004097          	auipc	ra,0x4
    28a6:	6fc080e7          	jalr	1788(ra) # 6f9e <memset>
  for(i = 0; i < N; i++){
    28aa:	fe042623          	sw	zero,-20(s0)
    28ae:	a0a9                	j	28f8 <sharedfd+0xde>
    if(write(fd, buf, sizeof(buf)) != sizeof(buf)){
    28b0:	fc840713          	addi	a4,s0,-56
    28b4:	fe042783          	lw	a5,-32(s0)
    28b8:	4629                	li	a2,10
    28ba:	85ba                	mv	a1,a4
    28bc:	853e                	mv	a0,a5
    28be:	00005097          	auipc	ra,0x5
    28c2:	aaa080e7          	jalr	-1366(ra) # 7368 <write>
    28c6:	87aa                	mv	a5,a0
    28c8:	873e                	mv	a4,a5
    28ca:	47a9                	li	a5,10
    28cc:	02f70163          	beq	a4,a5,28ee <sharedfd+0xd4>
      printf("%s: write sharedfd failed\n", s);
    28d0:	fb843583          	ld	a1,-72(s0)
    28d4:	00006517          	auipc	a0,0x6
    28d8:	0bc50513          	addi	a0,a0,188 # 8990 <malloc+0xf20>
    28dc:	00005097          	auipc	ra,0x5
    28e0:	fa2080e7          	jalr	-94(ra) # 787e <printf>
      exit(1);
    28e4:	4505                	li	a0,1
    28e6:	00005097          	auipc	ra,0x5
    28ea:	a62080e7          	jalr	-1438(ra) # 7348 <exit>
  for(i = 0; i < N; i++){
    28ee:	fec42783          	lw	a5,-20(s0)
    28f2:	2785                	addiw	a5,a5,1
    28f4:	fef42623          	sw	a5,-20(s0)
    28f8:	fec42783          	lw	a5,-20(s0)
    28fc:	0007871b          	sext.w	a4,a5
    2900:	3e700793          	li	a5,999
    2904:	fae7d6e3          	bge	a5,a4,28b0 <sharedfd+0x96>
    }
  }
  if(pid == 0) {
    2908:	fdc42783          	lw	a5,-36(s0)
    290c:	2781                	sext.w	a5,a5
    290e:	e791                	bnez	a5,291a <sharedfd+0x100>
    exit(0);
    2910:	4501                	li	a0,0
    2912:	00005097          	auipc	ra,0x5
    2916:	a36080e7          	jalr	-1482(ra) # 7348 <exit>
  } else {
    int xstatus;
    wait(&xstatus);
    291a:	fc440793          	addi	a5,s0,-60
    291e:	853e                	mv	a0,a5
    2920:	00005097          	auipc	ra,0x5
    2924:	a30080e7          	jalr	-1488(ra) # 7350 <wait>
    if(xstatus != 0)
    2928:	fc442783          	lw	a5,-60(s0)
    292c:	cb81                	beqz	a5,293c <sharedfd+0x122>
      exit(xstatus);
    292e:	fc442783          	lw	a5,-60(s0)
    2932:	853e                	mv	a0,a5
    2934:	00005097          	auipc	ra,0x5
    2938:	a14080e7          	jalr	-1516(ra) # 7348 <exit>
  }
  
  close(fd);
    293c:	fe042783          	lw	a5,-32(s0)
    2940:	853e                	mv	a0,a5
    2942:	00005097          	auipc	ra,0x5
    2946:	a2e080e7          	jalr	-1490(ra) # 7370 <close>
  fd = open("sharedfd", 0);
    294a:	4581                	li	a1,0
    294c:	00005517          	auipc	a0,0x5
    2950:	40c50513          	addi	a0,a0,1036 # 7d58 <malloc+0x2e8>
    2954:	00005097          	auipc	ra,0x5
    2958:	a34080e7          	jalr	-1484(ra) # 7388 <open>
    295c:	87aa                	mv	a5,a0
    295e:	fef42023          	sw	a5,-32(s0)
  if(fd < 0){
    2962:	fe042783          	lw	a5,-32(s0)
    2966:	2781                	sext.w	a5,a5
    2968:	0207d163          	bgez	a5,298a <sharedfd+0x170>
    printf("%s: cannot open sharedfd for reading\n", s);
    296c:	fb843583          	ld	a1,-72(s0)
    2970:	00006517          	auipc	a0,0x6
    2974:	04050513          	addi	a0,a0,64 # 89b0 <malloc+0xf40>
    2978:	00005097          	auipc	ra,0x5
    297c:	f06080e7          	jalr	-250(ra) # 787e <printf>
    exit(1);
    2980:	4505                	li	a0,1
    2982:	00005097          	auipc	ra,0x5
    2986:	9c6080e7          	jalr	-1594(ra) # 7348 <exit>
  }
  nc = np = 0;
    298a:	fe042223          	sw	zero,-28(s0)
    298e:	fe442783          	lw	a5,-28(s0)
    2992:	fef42423          	sw	a5,-24(s0)
  while((n = read(fd, buf, sizeof(buf))) > 0){
    2996:	a08d                	j	29f8 <sharedfd+0x1de>
    for(i = 0; i < sizeof(buf); i++){
    2998:	fe042623          	sw	zero,-20(s0)
    299c:	a881                	j	29ec <sharedfd+0x1d2>
      if(buf[i] == 'c')
    299e:	fec42783          	lw	a5,-20(s0)
    29a2:	ff040713          	addi	a4,s0,-16
    29a6:	97ba                	add	a5,a5,a4
    29a8:	fd87c783          	lbu	a5,-40(a5)
    29ac:	873e                	mv	a4,a5
    29ae:	06300793          	li	a5,99
    29b2:	00f71763          	bne	a4,a5,29c0 <sharedfd+0x1a6>
        nc++;
    29b6:	fe842783          	lw	a5,-24(s0)
    29ba:	2785                	addiw	a5,a5,1
    29bc:	fef42423          	sw	a5,-24(s0)
      if(buf[i] == 'p')
    29c0:	fec42783          	lw	a5,-20(s0)
    29c4:	ff040713          	addi	a4,s0,-16
    29c8:	97ba                	add	a5,a5,a4
    29ca:	fd87c783          	lbu	a5,-40(a5)
    29ce:	873e                	mv	a4,a5
    29d0:	07000793          	li	a5,112
    29d4:	00f71763          	bne	a4,a5,29e2 <sharedfd+0x1c8>
        np++;
    29d8:	fe442783          	lw	a5,-28(s0)
    29dc:	2785                	addiw	a5,a5,1
    29de:	fef42223          	sw	a5,-28(s0)
    for(i = 0; i < sizeof(buf); i++){
    29e2:	fec42783          	lw	a5,-20(s0)
    29e6:	2785                	addiw	a5,a5,1
    29e8:	fef42623          	sw	a5,-20(s0)
    29ec:	fec42783          	lw	a5,-20(s0)
    29f0:	873e                	mv	a4,a5
    29f2:	47a5                	li	a5,9
    29f4:	fae7f5e3          	bgeu	a5,a4,299e <sharedfd+0x184>
  while((n = read(fd, buf, sizeof(buf))) > 0){
    29f8:	fc840713          	addi	a4,s0,-56
    29fc:	fe042783          	lw	a5,-32(s0)
    2a00:	4629                	li	a2,10
    2a02:	85ba                	mv	a1,a4
    2a04:	853e                	mv	a0,a5
    2a06:	00005097          	auipc	ra,0x5
    2a0a:	95a080e7          	jalr	-1702(ra) # 7360 <read>
    2a0e:	87aa                	mv	a5,a0
    2a10:	fcf42c23          	sw	a5,-40(s0)
    2a14:	fd842783          	lw	a5,-40(s0)
    2a18:	2781                	sext.w	a5,a5
    2a1a:	f6f04fe3          	bgtz	a5,2998 <sharedfd+0x17e>
    }
  }
  close(fd);
    2a1e:	fe042783          	lw	a5,-32(s0)
    2a22:	853e                	mv	a0,a5
    2a24:	00005097          	auipc	ra,0x5
    2a28:	94c080e7          	jalr	-1716(ra) # 7370 <close>
  unlink("sharedfd");
    2a2c:	00005517          	auipc	a0,0x5
    2a30:	32c50513          	addi	a0,a0,812 # 7d58 <malloc+0x2e8>
    2a34:	00005097          	auipc	ra,0x5
    2a38:	964080e7          	jalr	-1692(ra) # 7398 <unlink>
  if(nc == N*SZ && np == N*SZ){
    2a3c:	fe842783          	lw	a5,-24(s0)
    2a40:	0007871b          	sext.w	a4,a5
    2a44:	6789                	lui	a5,0x2
    2a46:	71078793          	addi	a5,a5,1808 # 2710 <reparent2+0x7c>
    2a4a:	02f71063          	bne	a4,a5,2a6a <sharedfd+0x250>
    2a4e:	fe442783          	lw	a5,-28(s0)
    2a52:	0007871b          	sext.w	a4,a5
    2a56:	6789                	lui	a5,0x2
    2a58:	71078793          	addi	a5,a5,1808 # 2710 <reparent2+0x7c>
    2a5c:	00f71763          	bne	a4,a5,2a6a <sharedfd+0x250>
    exit(0);
    2a60:	4501                	li	a0,0
    2a62:	00005097          	auipc	ra,0x5
    2a66:	8e6080e7          	jalr	-1818(ra) # 7348 <exit>
  } else {
    printf("%s: nc/np test fails\n", s);
    2a6a:	fb843583          	ld	a1,-72(s0)
    2a6e:	00006517          	auipc	a0,0x6
    2a72:	f6a50513          	addi	a0,a0,-150 # 89d8 <malloc+0xf68>
    2a76:	00005097          	auipc	ra,0x5
    2a7a:	e08080e7          	jalr	-504(ra) # 787e <printf>
    exit(1);
    2a7e:	4505                	li	a0,1
    2a80:	00005097          	auipc	ra,0x5
    2a84:	8c8080e7          	jalr	-1848(ra) # 7348 <exit>

0000000000002a88 <fourfiles>:

// four processes write different files at the same
// time, to test block allocation.
void
fourfiles(char *s)
{
    2a88:	7159                	addi	sp,sp,-112
    2a8a:	f486                	sd	ra,104(sp)
    2a8c:	f0a2                	sd	s0,96(sp)
    2a8e:	1880                	addi	s0,sp,112
    2a90:	f8a43c23          	sd	a0,-104(s0)
  int fd, pid, i, j, n, total, pi;
  char *names[] = { "f0", "f1", "f2", "f3" };
    2a94:	00006797          	auipc	a5,0x6
    2a98:	fac78793          	addi	a5,a5,-84 # 8a40 <malloc+0xfd0>
    2a9c:	6390                	ld	a2,0(a5)
    2a9e:	6794                	ld	a3,8(a5)
    2aa0:	6b98                	ld	a4,16(a5)
    2aa2:	6f9c                	ld	a5,24(a5)
    2aa4:	fac43423          	sd	a2,-88(s0)
    2aa8:	fad43823          	sd	a3,-80(s0)
    2aac:	fae43c23          	sd	a4,-72(s0)
    2ab0:	fcf43023          	sd	a5,-64(s0)
  char *fname;
  enum { N=12, NCHILD=4, SZ=500 };
  
  for(pi = 0; pi < NCHILD; pi++){
    2ab4:	fe042023          	sw	zero,-32(s0)
    2ab8:	a281                	j	2bf8 <fourfiles+0x170>
    fname = names[pi];
    2aba:	fe042783          	lw	a5,-32(s0)
    2abe:	078e                	slli	a5,a5,0x3
    2ac0:	ff040713          	addi	a4,s0,-16
    2ac4:	97ba                	add	a5,a5,a4
    2ac6:	fb87b783          	ld	a5,-72(a5)
    2aca:	fcf43c23          	sd	a5,-40(s0)
    unlink(fname);
    2ace:	fd843503          	ld	a0,-40(s0)
    2ad2:	00005097          	auipc	ra,0x5
    2ad6:	8c6080e7          	jalr	-1850(ra) # 7398 <unlink>

    pid = fork();
    2ada:	00005097          	auipc	ra,0x5
    2ade:	866080e7          	jalr	-1946(ra) # 7340 <fork>
    2ae2:	87aa                	mv	a5,a0
    2ae4:	fcf42623          	sw	a5,-52(s0)
    if(pid < 0){
    2ae8:	fcc42783          	lw	a5,-52(s0)
    2aec:	2781                	sext.w	a5,a5
    2aee:	0207d163          	bgez	a5,2b10 <fourfiles+0x88>
      printf("fork failed\n", s);
    2af2:	f9843583          	ld	a1,-104(s0)
    2af6:	00005517          	auipc	a0,0x5
    2afa:	62a50513          	addi	a0,a0,1578 # 8120 <malloc+0x6b0>
    2afe:	00005097          	auipc	ra,0x5
    2b02:	d80080e7          	jalr	-640(ra) # 787e <printf>
      exit(1);
    2b06:	4505                	li	a0,1
    2b08:	00005097          	auipc	ra,0x5
    2b0c:	840080e7          	jalr	-1984(ra) # 7348 <exit>
    }

    if(pid == 0){
    2b10:	fcc42783          	lw	a5,-52(s0)
    2b14:	2781                	sext.w	a5,a5
    2b16:	efe1                	bnez	a5,2bee <fourfiles+0x166>
      fd = open(fname, O_CREATE | O_RDWR);
    2b18:	20200593          	li	a1,514
    2b1c:	fd843503          	ld	a0,-40(s0)
    2b20:	00005097          	auipc	ra,0x5
    2b24:	868080e7          	jalr	-1944(ra) # 7388 <open>
    2b28:	87aa                	mv	a5,a0
    2b2a:	fcf42a23          	sw	a5,-44(s0)
      if(fd < 0){
    2b2e:	fd442783          	lw	a5,-44(s0)
    2b32:	2781                	sext.w	a5,a5
    2b34:	0207d163          	bgez	a5,2b56 <fourfiles+0xce>
        printf("create failed\n", s);
    2b38:	f9843583          	ld	a1,-104(s0)
    2b3c:	00006517          	auipc	a0,0x6
    2b40:	eb450513          	addi	a0,a0,-332 # 89f0 <malloc+0xf80>
    2b44:	00005097          	auipc	ra,0x5
    2b48:	d3a080e7          	jalr	-710(ra) # 787e <printf>
        exit(1);
    2b4c:	4505                	li	a0,1
    2b4e:	00004097          	auipc	ra,0x4
    2b52:	7fa080e7          	jalr	2042(ra) # 7348 <exit>
      }

      memset(buf, '0'+pi, SZ);
    2b56:	fe042783          	lw	a5,-32(s0)
    2b5a:	0307879b          	addiw	a5,a5,48
    2b5e:	2781                	sext.w	a5,a5
    2b60:	1f400613          	li	a2,500
    2b64:	85be                	mv	a1,a5
    2b66:	00008517          	auipc	a0,0x8
    2b6a:	8a250513          	addi	a0,a0,-1886 # a408 <buf>
    2b6e:	00004097          	auipc	ra,0x4
    2b72:	430080e7          	jalr	1072(ra) # 6f9e <memset>
      for(i = 0; i < N; i++){
    2b76:	fe042623          	sw	zero,-20(s0)
    2b7a:	a8b1                	j	2bd6 <fourfiles+0x14e>
        if((n = write(fd, buf, SZ)) != SZ){
    2b7c:	fd442783          	lw	a5,-44(s0)
    2b80:	1f400613          	li	a2,500
    2b84:	00008597          	auipc	a1,0x8
    2b88:	88458593          	addi	a1,a1,-1916 # a408 <buf>
    2b8c:	853e                	mv	a0,a5
    2b8e:	00004097          	auipc	ra,0x4
    2b92:	7da080e7          	jalr	2010(ra) # 7368 <write>
    2b96:	87aa                	mv	a5,a0
    2b98:	fcf42823          	sw	a5,-48(s0)
    2b9c:	fd042783          	lw	a5,-48(s0)
    2ba0:	0007871b          	sext.w	a4,a5
    2ba4:	1f400793          	li	a5,500
    2ba8:	02f70263          	beq	a4,a5,2bcc <fourfiles+0x144>
          printf("write failed %d\n", n);
    2bac:	fd042783          	lw	a5,-48(s0)
    2bb0:	85be                	mv	a1,a5
    2bb2:	00006517          	auipc	a0,0x6
    2bb6:	e4e50513          	addi	a0,a0,-434 # 8a00 <malloc+0xf90>
    2bba:	00005097          	auipc	ra,0x5
    2bbe:	cc4080e7          	jalr	-828(ra) # 787e <printf>
          exit(1);
    2bc2:	4505                	li	a0,1
    2bc4:	00004097          	auipc	ra,0x4
    2bc8:	784080e7          	jalr	1924(ra) # 7348 <exit>
      for(i = 0; i < N; i++){
    2bcc:	fec42783          	lw	a5,-20(s0)
    2bd0:	2785                	addiw	a5,a5,1
    2bd2:	fef42623          	sw	a5,-20(s0)
    2bd6:	fec42783          	lw	a5,-20(s0)
    2bda:	0007871b          	sext.w	a4,a5
    2bde:	47ad                	li	a5,11
    2be0:	f8e7dee3          	bge	a5,a4,2b7c <fourfiles+0xf4>
        }
      }
      exit(0);
    2be4:	4501                	li	a0,0
    2be6:	00004097          	auipc	ra,0x4
    2bea:	762080e7          	jalr	1890(ra) # 7348 <exit>
  for(pi = 0; pi < NCHILD; pi++){
    2bee:	fe042783          	lw	a5,-32(s0)
    2bf2:	2785                	addiw	a5,a5,1
    2bf4:	fef42023          	sw	a5,-32(s0)
    2bf8:	fe042783          	lw	a5,-32(s0)
    2bfc:	0007871b          	sext.w	a4,a5
    2c00:	478d                	li	a5,3
    2c02:	eae7dce3          	bge	a5,a4,2aba <fourfiles+0x32>
    }
  }

  int xstatus;
  for(pi = 0; pi < NCHILD; pi++){
    2c06:	fe042023          	sw	zero,-32(s0)
    2c0a:	a03d                	j	2c38 <fourfiles+0x1b0>
    wait(&xstatus);
    2c0c:	fa440793          	addi	a5,s0,-92
    2c10:	853e                	mv	a0,a5
    2c12:	00004097          	auipc	ra,0x4
    2c16:	73e080e7          	jalr	1854(ra) # 7350 <wait>
    if(xstatus != 0)
    2c1a:	fa442783          	lw	a5,-92(s0)
    2c1e:	cb81                	beqz	a5,2c2e <fourfiles+0x1a6>
      exit(xstatus);
    2c20:	fa442783          	lw	a5,-92(s0)
    2c24:	853e                	mv	a0,a5
    2c26:	00004097          	auipc	ra,0x4
    2c2a:	722080e7          	jalr	1826(ra) # 7348 <exit>
  for(pi = 0; pi < NCHILD; pi++){
    2c2e:	fe042783          	lw	a5,-32(s0)
    2c32:	2785                	addiw	a5,a5,1
    2c34:	fef42023          	sw	a5,-32(s0)
    2c38:	fe042783          	lw	a5,-32(s0)
    2c3c:	0007871b          	sext.w	a4,a5
    2c40:	478d                	li	a5,3
    2c42:	fce7d5e3          	bge	a5,a4,2c0c <fourfiles+0x184>
  }

  for(i = 0; i < NCHILD; i++){
    2c46:	fe042623          	sw	zero,-20(s0)
    2c4a:	aa39                	j	2d68 <fourfiles+0x2e0>
    fname = names[i];
    2c4c:	fec42783          	lw	a5,-20(s0)
    2c50:	078e                	slli	a5,a5,0x3
    2c52:	ff040713          	addi	a4,s0,-16
    2c56:	97ba                	add	a5,a5,a4
    2c58:	fb87b783          	ld	a5,-72(a5)
    2c5c:	fcf43c23          	sd	a5,-40(s0)
    fd = open(fname, 0);
    2c60:	4581                	li	a1,0
    2c62:	fd843503          	ld	a0,-40(s0)
    2c66:	00004097          	auipc	ra,0x4
    2c6a:	722080e7          	jalr	1826(ra) # 7388 <open>
    2c6e:	87aa                	mv	a5,a0
    2c70:	fcf42a23          	sw	a5,-44(s0)
    total = 0;
    2c74:	fe042223          	sw	zero,-28(s0)
    while((n = read(fd, buf, sizeof(buf))) > 0){
    2c78:	a88d                	j	2cea <fourfiles+0x262>
      for(j = 0; j < n; j++){
    2c7a:	fe042423          	sw	zero,-24(s0)
    2c7e:	a0b9                	j	2ccc <fourfiles+0x244>
        if(buf[j] != '0'+i){
    2c80:	00007717          	auipc	a4,0x7
    2c84:	78870713          	addi	a4,a4,1928 # a408 <buf>
    2c88:	fe842783          	lw	a5,-24(s0)
    2c8c:	97ba                	add	a5,a5,a4
    2c8e:	0007c783          	lbu	a5,0(a5)
    2c92:	0007871b          	sext.w	a4,a5
    2c96:	fec42783          	lw	a5,-20(s0)
    2c9a:	0307879b          	addiw	a5,a5,48
    2c9e:	2781                	sext.w	a5,a5
    2ca0:	02f70163          	beq	a4,a5,2cc2 <fourfiles+0x23a>
          printf("wrong char\n", s);
    2ca4:	f9843583          	ld	a1,-104(s0)
    2ca8:	00006517          	auipc	a0,0x6
    2cac:	d7050513          	addi	a0,a0,-656 # 8a18 <malloc+0xfa8>
    2cb0:	00005097          	auipc	ra,0x5
    2cb4:	bce080e7          	jalr	-1074(ra) # 787e <printf>
          exit(1);
    2cb8:	4505                	li	a0,1
    2cba:	00004097          	auipc	ra,0x4
    2cbe:	68e080e7          	jalr	1678(ra) # 7348 <exit>
      for(j = 0; j < n; j++){
    2cc2:	fe842783          	lw	a5,-24(s0)
    2cc6:	2785                	addiw	a5,a5,1
    2cc8:	fef42423          	sw	a5,-24(s0)
    2ccc:	fe842703          	lw	a4,-24(s0)
    2cd0:	fd042783          	lw	a5,-48(s0)
    2cd4:	2701                	sext.w	a4,a4
    2cd6:	2781                	sext.w	a5,a5
    2cd8:	faf744e3          	blt	a4,a5,2c80 <fourfiles+0x1f8>
        }
      }
      total += n;
    2cdc:	fe442703          	lw	a4,-28(s0)
    2ce0:	fd042783          	lw	a5,-48(s0)
    2ce4:	9fb9                	addw	a5,a5,a4
    2ce6:	fef42223          	sw	a5,-28(s0)
    while((n = read(fd, buf, sizeof(buf))) > 0){
    2cea:	fd442783          	lw	a5,-44(s0)
    2cee:	660d                	lui	a2,0x3
    2cf0:	00007597          	auipc	a1,0x7
    2cf4:	71858593          	addi	a1,a1,1816 # a408 <buf>
    2cf8:	853e                	mv	a0,a5
    2cfa:	00004097          	auipc	ra,0x4
    2cfe:	666080e7          	jalr	1638(ra) # 7360 <read>
    2d02:	87aa                	mv	a5,a0
    2d04:	fcf42823          	sw	a5,-48(s0)
    2d08:	fd042783          	lw	a5,-48(s0)
    2d0c:	2781                	sext.w	a5,a5
    2d0e:	f6f046e3          	bgtz	a5,2c7a <fourfiles+0x1f2>
    }
    close(fd);
    2d12:	fd442783          	lw	a5,-44(s0)
    2d16:	853e                	mv	a0,a5
    2d18:	00004097          	auipc	ra,0x4
    2d1c:	658080e7          	jalr	1624(ra) # 7370 <close>
    if(total != N*SZ){
    2d20:	fe442783          	lw	a5,-28(s0)
    2d24:	0007871b          	sext.w	a4,a5
    2d28:	6785                	lui	a5,0x1
    2d2a:	77078793          	addi	a5,a5,1904 # 1770 <writebig+0x124>
    2d2e:	02f70263          	beq	a4,a5,2d52 <fourfiles+0x2ca>
      printf("wrong length %d\n", total);
    2d32:	fe442783          	lw	a5,-28(s0)
    2d36:	85be                	mv	a1,a5
    2d38:	00006517          	auipc	a0,0x6
    2d3c:	cf050513          	addi	a0,a0,-784 # 8a28 <malloc+0xfb8>
    2d40:	00005097          	auipc	ra,0x5
    2d44:	b3e080e7          	jalr	-1218(ra) # 787e <printf>
      exit(1);
    2d48:	4505                	li	a0,1
    2d4a:	00004097          	auipc	ra,0x4
    2d4e:	5fe080e7          	jalr	1534(ra) # 7348 <exit>
    }
    unlink(fname);
    2d52:	fd843503          	ld	a0,-40(s0)
    2d56:	00004097          	auipc	ra,0x4
    2d5a:	642080e7          	jalr	1602(ra) # 7398 <unlink>
  for(i = 0; i < NCHILD; i++){
    2d5e:	fec42783          	lw	a5,-20(s0)
    2d62:	2785                	addiw	a5,a5,1
    2d64:	fef42623          	sw	a5,-20(s0)
    2d68:	fec42783          	lw	a5,-20(s0)
    2d6c:	0007871b          	sext.w	a4,a5
    2d70:	478d                	li	a5,3
    2d72:	ece7dde3          	bge	a5,a4,2c4c <fourfiles+0x1c4>
  }
}
    2d76:	0001                	nop
    2d78:	0001                	nop
    2d7a:	70a6                	ld	ra,104(sp)
    2d7c:	7406                	ld	s0,96(sp)
    2d7e:	6165                	addi	sp,sp,112
    2d80:	8082                	ret

0000000000002d82 <createdelete>:

// four processes create and delete different files in same directory
void
createdelete(char *s)
{
    2d82:	711d                	addi	sp,sp,-96
    2d84:	ec86                	sd	ra,88(sp)
    2d86:	e8a2                	sd	s0,80(sp)
    2d88:	1080                	addi	s0,sp,96
    2d8a:	faa43423          	sd	a0,-88(s0)
  enum { N = 20, NCHILD=4 };
  int pid, i, fd, pi;
  char name[32];

  for(pi = 0; pi < NCHILD; pi++){
    2d8e:	fe042423          	sw	zero,-24(s0)
    2d92:	aa91                	j	2ee6 <createdelete+0x164>
    pid = fork();
    2d94:	00004097          	auipc	ra,0x4
    2d98:	5ac080e7          	jalr	1452(ra) # 7340 <fork>
    2d9c:	87aa                	mv	a5,a0
    2d9e:	fef42023          	sw	a5,-32(s0)
    if(pid < 0){
    2da2:	fe042783          	lw	a5,-32(s0)
    2da6:	2781                	sext.w	a5,a5
    2da8:	0207d163          	bgez	a5,2dca <createdelete+0x48>
      printf("fork failed\n", s);
    2dac:	fa843583          	ld	a1,-88(s0)
    2db0:	00005517          	auipc	a0,0x5
    2db4:	37050513          	addi	a0,a0,880 # 8120 <malloc+0x6b0>
    2db8:	00005097          	auipc	ra,0x5
    2dbc:	ac6080e7          	jalr	-1338(ra) # 787e <printf>
      exit(1);
    2dc0:	4505                	li	a0,1
    2dc2:	00004097          	auipc	ra,0x4
    2dc6:	586080e7          	jalr	1414(ra) # 7348 <exit>
    }

    if(pid == 0){
    2dca:	fe042783          	lw	a5,-32(s0)
    2dce:	2781                	sext.w	a5,a5
    2dd0:	10079663          	bnez	a5,2edc <createdelete+0x15a>
      name[0] = 'p' + pi;
    2dd4:	fe842783          	lw	a5,-24(s0)
    2dd8:	0ff7f793          	andi	a5,a5,255
    2ddc:	0707879b          	addiw	a5,a5,112
    2de0:	0ff7f793          	andi	a5,a5,255
    2de4:	fcf40023          	sb	a5,-64(s0)
      name[2] = '\0';
    2de8:	fc040123          	sb	zero,-62(s0)
      for(i = 0; i < N; i++){
    2dec:	fe042623          	sw	zero,-20(s0)
    2df0:	a8d1                	j	2ec4 <createdelete+0x142>
        name[1] = '0' + i;
    2df2:	fec42783          	lw	a5,-20(s0)
    2df6:	0ff7f793          	andi	a5,a5,255
    2dfa:	0307879b          	addiw	a5,a5,48
    2dfe:	0ff7f793          	andi	a5,a5,255
    2e02:	fcf400a3          	sb	a5,-63(s0)
        fd = open(name, O_CREATE | O_RDWR);
    2e06:	fc040793          	addi	a5,s0,-64
    2e0a:	20200593          	li	a1,514
    2e0e:	853e                	mv	a0,a5
    2e10:	00004097          	auipc	ra,0x4
    2e14:	578080e7          	jalr	1400(ra) # 7388 <open>
    2e18:	87aa                	mv	a5,a0
    2e1a:	fef42223          	sw	a5,-28(s0)
        if(fd < 0){
    2e1e:	fe442783          	lw	a5,-28(s0)
    2e22:	2781                	sext.w	a5,a5
    2e24:	0207d163          	bgez	a5,2e46 <createdelete+0xc4>
          printf("%s: create failed\n", s);
    2e28:	fa843583          	ld	a1,-88(s0)
    2e2c:	00006517          	auipc	a0,0x6
    2e30:	94450513          	addi	a0,a0,-1724 # 8770 <malloc+0xd00>
    2e34:	00005097          	auipc	ra,0x5
    2e38:	a4a080e7          	jalr	-1462(ra) # 787e <printf>
          exit(1);
    2e3c:	4505                	li	a0,1
    2e3e:	00004097          	auipc	ra,0x4
    2e42:	50a080e7          	jalr	1290(ra) # 7348 <exit>
        }
        close(fd);
    2e46:	fe442783          	lw	a5,-28(s0)
    2e4a:	853e                	mv	a0,a5
    2e4c:	00004097          	auipc	ra,0x4
    2e50:	524080e7          	jalr	1316(ra) # 7370 <close>
        if(i > 0 && (i % 2 ) == 0){
    2e54:	fec42783          	lw	a5,-20(s0)
    2e58:	2781                	sext.w	a5,a5
    2e5a:	06f05063          	blez	a5,2eba <createdelete+0x138>
    2e5e:	fec42783          	lw	a5,-20(s0)
    2e62:	8b85                	andi	a5,a5,1
    2e64:	2781                	sext.w	a5,a5
    2e66:	ebb1                	bnez	a5,2eba <createdelete+0x138>
          name[1] = '0' + (i / 2);
    2e68:	fec42783          	lw	a5,-20(s0)
    2e6c:	01f7d71b          	srliw	a4,a5,0x1f
    2e70:	9fb9                	addw	a5,a5,a4
    2e72:	4017d79b          	sraiw	a5,a5,0x1
    2e76:	2781                	sext.w	a5,a5
    2e78:	0ff7f793          	andi	a5,a5,255
    2e7c:	0307879b          	addiw	a5,a5,48
    2e80:	0ff7f793          	andi	a5,a5,255
    2e84:	fcf400a3          	sb	a5,-63(s0)
          if(unlink(name) < 0){
    2e88:	fc040793          	addi	a5,s0,-64
    2e8c:	853e                	mv	a0,a5
    2e8e:	00004097          	auipc	ra,0x4
    2e92:	50a080e7          	jalr	1290(ra) # 7398 <unlink>
    2e96:	87aa                	mv	a5,a0
    2e98:	0207d163          	bgez	a5,2eba <createdelete+0x138>
            printf("%s: unlink failed\n", s);
    2e9c:	fa843583          	ld	a1,-88(s0)
    2ea0:	00005517          	auipc	a0,0x5
    2ea4:	62050513          	addi	a0,a0,1568 # 84c0 <malloc+0xa50>
    2ea8:	00005097          	auipc	ra,0x5
    2eac:	9d6080e7          	jalr	-1578(ra) # 787e <printf>
            exit(1);
    2eb0:	4505                	li	a0,1
    2eb2:	00004097          	auipc	ra,0x4
    2eb6:	496080e7          	jalr	1174(ra) # 7348 <exit>
      for(i = 0; i < N; i++){
    2eba:	fec42783          	lw	a5,-20(s0)
    2ebe:	2785                	addiw	a5,a5,1
    2ec0:	fef42623          	sw	a5,-20(s0)
    2ec4:	fec42783          	lw	a5,-20(s0)
    2ec8:	0007871b          	sext.w	a4,a5
    2ecc:	47cd                	li	a5,19
    2ece:	f2e7d2e3          	bge	a5,a4,2df2 <createdelete+0x70>
          }
        }
      }
      exit(0);
    2ed2:	4501                	li	a0,0
    2ed4:	00004097          	auipc	ra,0x4
    2ed8:	474080e7          	jalr	1140(ra) # 7348 <exit>
  for(pi = 0; pi < NCHILD; pi++){
    2edc:	fe842783          	lw	a5,-24(s0)
    2ee0:	2785                	addiw	a5,a5,1
    2ee2:	fef42423          	sw	a5,-24(s0)
    2ee6:	fe842783          	lw	a5,-24(s0)
    2eea:	0007871b          	sext.w	a4,a5
    2eee:	478d                	li	a5,3
    2ef0:	eae7d2e3          	bge	a5,a4,2d94 <createdelete+0x12>
    }
  }

  int xstatus;
  for(pi = 0; pi < NCHILD; pi++){
    2ef4:	fe042423          	sw	zero,-24(s0)
    2ef8:	a02d                	j	2f22 <createdelete+0x1a0>
    wait(&xstatus);
    2efa:	fbc40793          	addi	a5,s0,-68
    2efe:	853e                	mv	a0,a5
    2f00:	00004097          	auipc	ra,0x4
    2f04:	450080e7          	jalr	1104(ra) # 7350 <wait>
    if(xstatus != 0)
    2f08:	fbc42783          	lw	a5,-68(s0)
    2f0c:	c791                	beqz	a5,2f18 <createdelete+0x196>
      exit(1);
    2f0e:	4505                	li	a0,1
    2f10:	00004097          	auipc	ra,0x4
    2f14:	438080e7          	jalr	1080(ra) # 7348 <exit>
  for(pi = 0; pi < NCHILD; pi++){
    2f18:	fe842783          	lw	a5,-24(s0)
    2f1c:	2785                	addiw	a5,a5,1
    2f1e:	fef42423          	sw	a5,-24(s0)
    2f22:	fe842783          	lw	a5,-24(s0)
    2f26:	0007871b          	sext.w	a4,a5
    2f2a:	478d                	li	a5,3
    2f2c:	fce7d7e3          	bge	a5,a4,2efa <createdelete+0x178>
  }

  name[0] = name[1] = name[2] = 0;
    2f30:	fc040123          	sb	zero,-62(s0)
    2f34:	fc244783          	lbu	a5,-62(s0)
    2f38:	fcf400a3          	sb	a5,-63(s0)
    2f3c:	fc144783          	lbu	a5,-63(s0)
    2f40:	fcf40023          	sb	a5,-64(s0)
  for(i = 0; i < N; i++){
    2f44:	fe042623          	sw	zero,-20(s0)
    2f48:	a229                	j	3052 <createdelete+0x2d0>
    for(pi = 0; pi < NCHILD; pi++){
    2f4a:	fe042423          	sw	zero,-24(s0)
    2f4e:	a0f5                	j	303a <createdelete+0x2b8>
      name[0] = 'p' + pi;
    2f50:	fe842783          	lw	a5,-24(s0)
    2f54:	0ff7f793          	andi	a5,a5,255
    2f58:	0707879b          	addiw	a5,a5,112
    2f5c:	0ff7f793          	andi	a5,a5,255
    2f60:	fcf40023          	sb	a5,-64(s0)
      name[1] = '0' + i;
    2f64:	fec42783          	lw	a5,-20(s0)
    2f68:	0ff7f793          	andi	a5,a5,255
    2f6c:	0307879b          	addiw	a5,a5,48
    2f70:	0ff7f793          	andi	a5,a5,255
    2f74:	fcf400a3          	sb	a5,-63(s0)
      fd = open(name, 0);
    2f78:	fc040793          	addi	a5,s0,-64
    2f7c:	4581                	li	a1,0
    2f7e:	853e                	mv	a0,a5
    2f80:	00004097          	auipc	ra,0x4
    2f84:	408080e7          	jalr	1032(ra) # 7388 <open>
    2f88:	87aa                	mv	a5,a0
    2f8a:	fef42223          	sw	a5,-28(s0)
      if((i == 0 || i >= N/2) && fd < 0){
    2f8e:	fec42783          	lw	a5,-20(s0)
    2f92:	2781                	sext.w	a5,a5
    2f94:	cb81                	beqz	a5,2fa4 <createdelete+0x222>
    2f96:	fec42783          	lw	a5,-20(s0)
    2f9a:	0007871b          	sext.w	a4,a5
    2f9e:	47a5                	li	a5,9
    2fa0:	02e7d963          	bge	a5,a4,2fd2 <createdelete+0x250>
    2fa4:	fe442783          	lw	a5,-28(s0)
    2fa8:	2781                	sext.w	a5,a5
    2faa:	0207d463          	bgez	a5,2fd2 <createdelete+0x250>
        printf("%s: oops createdelete %s didn't exist\n", s, name);
    2fae:	fc040793          	addi	a5,s0,-64
    2fb2:	863e                	mv	a2,a5
    2fb4:	fa843583          	ld	a1,-88(s0)
    2fb8:	00006517          	auipc	a0,0x6
    2fbc:	aa850513          	addi	a0,a0,-1368 # 8a60 <malloc+0xff0>
    2fc0:	00005097          	auipc	ra,0x5
    2fc4:	8be080e7          	jalr	-1858(ra) # 787e <printf>
        exit(1);
    2fc8:	4505                	li	a0,1
    2fca:	00004097          	auipc	ra,0x4
    2fce:	37e080e7          	jalr	894(ra) # 7348 <exit>
      } else if((i >= 1 && i < N/2) && fd >= 0){
    2fd2:	fec42783          	lw	a5,-20(s0)
    2fd6:	2781                	sext.w	a5,a5
    2fd8:	04f05063          	blez	a5,3018 <createdelete+0x296>
    2fdc:	fec42783          	lw	a5,-20(s0)
    2fe0:	0007871b          	sext.w	a4,a5
    2fe4:	47a5                	li	a5,9
    2fe6:	02e7c963          	blt	a5,a4,3018 <createdelete+0x296>
    2fea:	fe442783          	lw	a5,-28(s0)
    2fee:	2781                	sext.w	a5,a5
    2ff0:	0207c463          	bltz	a5,3018 <createdelete+0x296>
        printf("%s: oops createdelete %s did exist\n", s, name);
    2ff4:	fc040793          	addi	a5,s0,-64
    2ff8:	863e                	mv	a2,a5
    2ffa:	fa843583          	ld	a1,-88(s0)
    2ffe:	00006517          	auipc	a0,0x6
    3002:	a8a50513          	addi	a0,a0,-1398 # 8a88 <malloc+0x1018>
    3006:	00005097          	auipc	ra,0x5
    300a:	878080e7          	jalr	-1928(ra) # 787e <printf>
        exit(1);
    300e:	4505                	li	a0,1
    3010:	00004097          	auipc	ra,0x4
    3014:	338080e7          	jalr	824(ra) # 7348 <exit>
      }
      if(fd >= 0)
    3018:	fe442783          	lw	a5,-28(s0)
    301c:	2781                	sext.w	a5,a5
    301e:	0007c963          	bltz	a5,3030 <createdelete+0x2ae>
        close(fd);
    3022:	fe442783          	lw	a5,-28(s0)
    3026:	853e                	mv	a0,a5
    3028:	00004097          	auipc	ra,0x4
    302c:	348080e7          	jalr	840(ra) # 7370 <close>
    for(pi = 0; pi < NCHILD; pi++){
    3030:	fe842783          	lw	a5,-24(s0)
    3034:	2785                	addiw	a5,a5,1
    3036:	fef42423          	sw	a5,-24(s0)
    303a:	fe842783          	lw	a5,-24(s0)
    303e:	0007871b          	sext.w	a4,a5
    3042:	478d                	li	a5,3
    3044:	f0e7d6e3          	bge	a5,a4,2f50 <createdelete+0x1ce>
  for(i = 0; i < N; i++){
    3048:	fec42783          	lw	a5,-20(s0)
    304c:	2785                	addiw	a5,a5,1
    304e:	fef42623          	sw	a5,-20(s0)
    3052:	fec42783          	lw	a5,-20(s0)
    3056:	0007871b          	sext.w	a4,a5
    305a:	47cd                	li	a5,19
    305c:	eee7d7e3          	bge	a5,a4,2f4a <createdelete+0x1c8>
    }
  }

  for(i = 0; i < N; i++){
    3060:	fe042623          	sw	zero,-20(s0)
    3064:	a085                	j	30c4 <createdelete+0x342>
    for(pi = 0; pi < NCHILD; pi++){
    3066:	fe042423          	sw	zero,-24(s0)
    306a:	a089                	j	30ac <createdelete+0x32a>
      name[0] = 'p' + i;
    306c:	fec42783          	lw	a5,-20(s0)
    3070:	0ff7f793          	andi	a5,a5,255
    3074:	0707879b          	addiw	a5,a5,112
    3078:	0ff7f793          	andi	a5,a5,255
    307c:	fcf40023          	sb	a5,-64(s0)
      name[1] = '0' + i;
    3080:	fec42783          	lw	a5,-20(s0)
    3084:	0ff7f793          	andi	a5,a5,255
    3088:	0307879b          	addiw	a5,a5,48
    308c:	0ff7f793          	andi	a5,a5,255
    3090:	fcf400a3          	sb	a5,-63(s0)
      unlink(name);
    3094:	fc040793          	addi	a5,s0,-64
    3098:	853e                	mv	a0,a5
    309a:	00004097          	auipc	ra,0x4
    309e:	2fe080e7          	jalr	766(ra) # 7398 <unlink>
    for(pi = 0; pi < NCHILD; pi++){
    30a2:	fe842783          	lw	a5,-24(s0)
    30a6:	2785                	addiw	a5,a5,1
    30a8:	fef42423          	sw	a5,-24(s0)
    30ac:	fe842783          	lw	a5,-24(s0)
    30b0:	0007871b          	sext.w	a4,a5
    30b4:	478d                	li	a5,3
    30b6:	fae7dbe3          	bge	a5,a4,306c <createdelete+0x2ea>
  for(i = 0; i < N; i++){
    30ba:	fec42783          	lw	a5,-20(s0)
    30be:	2785                	addiw	a5,a5,1
    30c0:	fef42623          	sw	a5,-20(s0)
    30c4:	fec42783          	lw	a5,-20(s0)
    30c8:	0007871b          	sext.w	a4,a5
    30cc:	47cd                	li	a5,19
    30ce:	f8e7dce3          	bge	a5,a4,3066 <createdelete+0x2e4>
    }
  }
}
    30d2:	0001                	nop
    30d4:	0001                	nop
    30d6:	60e6                	ld	ra,88(sp)
    30d8:	6446                	ld	s0,80(sp)
    30da:	6125                	addi	sp,sp,96
    30dc:	8082                	ret

00000000000030de <unlinkread>:

// can I unlink a file and still read it?
void
unlinkread(char *s)
{
    30de:	7179                	addi	sp,sp,-48
    30e0:	f406                	sd	ra,40(sp)
    30e2:	f022                	sd	s0,32(sp)
    30e4:	1800                	addi	s0,sp,48
    30e6:	fca43c23          	sd	a0,-40(s0)
  enum { SZ = 5 };
  int fd, fd1;

  fd = open("unlinkread", O_CREATE | O_RDWR);
    30ea:	20200593          	li	a1,514
    30ee:	00005517          	auipc	a0,0x5
    30f2:	c3250513          	addi	a0,a0,-974 # 7d20 <malloc+0x2b0>
    30f6:	00004097          	auipc	ra,0x4
    30fa:	292080e7          	jalr	658(ra) # 7388 <open>
    30fe:	87aa                	mv	a5,a0
    3100:	fef42623          	sw	a5,-20(s0)
  if(fd < 0){
    3104:	fec42783          	lw	a5,-20(s0)
    3108:	2781                	sext.w	a5,a5
    310a:	0207d163          	bgez	a5,312c <unlinkread+0x4e>
    printf("%s: create unlinkread failed\n", s);
    310e:	fd843583          	ld	a1,-40(s0)
    3112:	00006517          	auipc	a0,0x6
    3116:	99e50513          	addi	a0,a0,-1634 # 8ab0 <malloc+0x1040>
    311a:	00004097          	auipc	ra,0x4
    311e:	764080e7          	jalr	1892(ra) # 787e <printf>
    exit(1);
    3122:	4505                	li	a0,1
    3124:	00004097          	auipc	ra,0x4
    3128:	224080e7          	jalr	548(ra) # 7348 <exit>
  }
  write(fd, "hello", SZ);
    312c:	fec42783          	lw	a5,-20(s0)
    3130:	4615                	li	a2,5
    3132:	00006597          	auipc	a1,0x6
    3136:	99e58593          	addi	a1,a1,-1634 # 8ad0 <malloc+0x1060>
    313a:	853e                	mv	a0,a5
    313c:	00004097          	auipc	ra,0x4
    3140:	22c080e7          	jalr	556(ra) # 7368 <write>
  close(fd);
    3144:	fec42783          	lw	a5,-20(s0)
    3148:	853e                	mv	a0,a5
    314a:	00004097          	auipc	ra,0x4
    314e:	226080e7          	jalr	550(ra) # 7370 <close>

  fd = open("unlinkread", O_RDWR);
    3152:	4589                	li	a1,2
    3154:	00005517          	auipc	a0,0x5
    3158:	bcc50513          	addi	a0,a0,-1076 # 7d20 <malloc+0x2b0>
    315c:	00004097          	auipc	ra,0x4
    3160:	22c080e7          	jalr	556(ra) # 7388 <open>
    3164:	87aa                	mv	a5,a0
    3166:	fef42623          	sw	a5,-20(s0)
  if(fd < 0){
    316a:	fec42783          	lw	a5,-20(s0)
    316e:	2781                	sext.w	a5,a5
    3170:	0207d163          	bgez	a5,3192 <unlinkread+0xb4>
    printf("%s: open unlinkread failed\n", s);
    3174:	fd843583          	ld	a1,-40(s0)
    3178:	00006517          	auipc	a0,0x6
    317c:	96050513          	addi	a0,a0,-1696 # 8ad8 <malloc+0x1068>
    3180:	00004097          	auipc	ra,0x4
    3184:	6fe080e7          	jalr	1790(ra) # 787e <printf>
    exit(1);
    3188:	4505                	li	a0,1
    318a:	00004097          	auipc	ra,0x4
    318e:	1be080e7          	jalr	446(ra) # 7348 <exit>
  }
  if(unlink("unlinkread") != 0){
    3192:	00005517          	auipc	a0,0x5
    3196:	b8e50513          	addi	a0,a0,-1138 # 7d20 <malloc+0x2b0>
    319a:	00004097          	auipc	ra,0x4
    319e:	1fe080e7          	jalr	510(ra) # 7398 <unlink>
    31a2:	87aa                	mv	a5,a0
    31a4:	c385                	beqz	a5,31c4 <unlinkread+0xe6>
    printf("%s: unlink unlinkread failed\n", s);
    31a6:	fd843583          	ld	a1,-40(s0)
    31aa:	00006517          	auipc	a0,0x6
    31ae:	94e50513          	addi	a0,a0,-1714 # 8af8 <malloc+0x1088>
    31b2:	00004097          	auipc	ra,0x4
    31b6:	6cc080e7          	jalr	1740(ra) # 787e <printf>
    exit(1);
    31ba:	4505                	li	a0,1
    31bc:	00004097          	auipc	ra,0x4
    31c0:	18c080e7          	jalr	396(ra) # 7348 <exit>
  }

  fd1 = open("unlinkread", O_CREATE | O_RDWR);
    31c4:	20200593          	li	a1,514
    31c8:	00005517          	auipc	a0,0x5
    31cc:	b5850513          	addi	a0,a0,-1192 # 7d20 <malloc+0x2b0>
    31d0:	00004097          	auipc	ra,0x4
    31d4:	1b8080e7          	jalr	440(ra) # 7388 <open>
    31d8:	87aa                	mv	a5,a0
    31da:	fef42423          	sw	a5,-24(s0)
  write(fd1, "yyy", 3);
    31de:	fe842783          	lw	a5,-24(s0)
    31e2:	460d                	li	a2,3
    31e4:	00006597          	auipc	a1,0x6
    31e8:	93458593          	addi	a1,a1,-1740 # 8b18 <malloc+0x10a8>
    31ec:	853e                	mv	a0,a5
    31ee:	00004097          	auipc	ra,0x4
    31f2:	17a080e7          	jalr	378(ra) # 7368 <write>
  close(fd1);
    31f6:	fe842783          	lw	a5,-24(s0)
    31fa:	853e                	mv	a0,a5
    31fc:	00004097          	auipc	ra,0x4
    3200:	174080e7          	jalr	372(ra) # 7370 <close>

  if(read(fd, buf, sizeof(buf)) != SZ){
    3204:	fec42783          	lw	a5,-20(s0)
    3208:	660d                	lui	a2,0x3
    320a:	00007597          	auipc	a1,0x7
    320e:	1fe58593          	addi	a1,a1,510 # a408 <buf>
    3212:	853e                	mv	a0,a5
    3214:	00004097          	auipc	ra,0x4
    3218:	14c080e7          	jalr	332(ra) # 7360 <read>
    321c:	87aa                	mv	a5,a0
    321e:	873e                	mv	a4,a5
    3220:	4795                	li	a5,5
    3222:	02f70163          	beq	a4,a5,3244 <unlinkread+0x166>
    printf("%s: unlinkread read failed", s);
    3226:	fd843583          	ld	a1,-40(s0)
    322a:	00006517          	auipc	a0,0x6
    322e:	8f650513          	addi	a0,a0,-1802 # 8b20 <malloc+0x10b0>
    3232:	00004097          	auipc	ra,0x4
    3236:	64c080e7          	jalr	1612(ra) # 787e <printf>
    exit(1);
    323a:	4505                	li	a0,1
    323c:	00004097          	auipc	ra,0x4
    3240:	10c080e7          	jalr	268(ra) # 7348 <exit>
  }
  if(buf[0] != 'h'){
    3244:	00007797          	auipc	a5,0x7
    3248:	1c478793          	addi	a5,a5,452 # a408 <buf>
    324c:	0007c783          	lbu	a5,0(a5)
    3250:	873e                	mv	a4,a5
    3252:	06800793          	li	a5,104
    3256:	02f70163          	beq	a4,a5,3278 <unlinkread+0x19a>
    printf("%s: unlinkread wrong data\n", s);
    325a:	fd843583          	ld	a1,-40(s0)
    325e:	00006517          	auipc	a0,0x6
    3262:	8e250513          	addi	a0,a0,-1822 # 8b40 <malloc+0x10d0>
    3266:	00004097          	auipc	ra,0x4
    326a:	618080e7          	jalr	1560(ra) # 787e <printf>
    exit(1);
    326e:	4505                	li	a0,1
    3270:	00004097          	auipc	ra,0x4
    3274:	0d8080e7          	jalr	216(ra) # 7348 <exit>
  }
  if(write(fd, buf, 10) != 10){
    3278:	fec42783          	lw	a5,-20(s0)
    327c:	4629                	li	a2,10
    327e:	00007597          	auipc	a1,0x7
    3282:	18a58593          	addi	a1,a1,394 # a408 <buf>
    3286:	853e                	mv	a0,a5
    3288:	00004097          	auipc	ra,0x4
    328c:	0e0080e7          	jalr	224(ra) # 7368 <write>
    3290:	87aa                	mv	a5,a0
    3292:	873e                	mv	a4,a5
    3294:	47a9                	li	a5,10
    3296:	02f70163          	beq	a4,a5,32b8 <unlinkread+0x1da>
    printf("%s: unlinkread write failed\n", s);
    329a:	fd843583          	ld	a1,-40(s0)
    329e:	00006517          	auipc	a0,0x6
    32a2:	8c250513          	addi	a0,a0,-1854 # 8b60 <malloc+0x10f0>
    32a6:	00004097          	auipc	ra,0x4
    32aa:	5d8080e7          	jalr	1496(ra) # 787e <printf>
    exit(1);
    32ae:	4505                	li	a0,1
    32b0:	00004097          	auipc	ra,0x4
    32b4:	098080e7          	jalr	152(ra) # 7348 <exit>
  }
  close(fd);
    32b8:	fec42783          	lw	a5,-20(s0)
    32bc:	853e                	mv	a0,a5
    32be:	00004097          	auipc	ra,0x4
    32c2:	0b2080e7          	jalr	178(ra) # 7370 <close>
  unlink("unlinkread");
    32c6:	00005517          	auipc	a0,0x5
    32ca:	a5a50513          	addi	a0,a0,-1446 # 7d20 <malloc+0x2b0>
    32ce:	00004097          	auipc	ra,0x4
    32d2:	0ca080e7          	jalr	202(ra) # 7398 <unlink>
}
    32d6:	0001                	nop
    32d8:	70a2                	ld	ra,40(sp)
    32da:	7402                	ld	s0,32(sp)
    32dc:	6145                	addi	sp,sp,48
    32de:	8082                	ret

00000000000032e0 <linktest>:

void
linktest(char *s)
{
    32e0:	7179                	addi	sp,sp,-48
    32e2:	f406                	sd	ra,40(sp)
    32e4:	f022                	sd	s0,32(sp)
    32e6:	1800                	addi	s0,sp,48
    32e8:	fca43c23          	sd	a0,-40(s0)
  enum { SZ = 5 };
  int fd;

  unlink("lf1");
    32ec:	00006517          	auipc	a0,0x6
    32f0:	89450513          	addi	a0,a0,-1900 # 8b80 <malloc+0x1110>
    32f4:	00004097          	auipc	ra,0x4
    32f8:	0a4080e7          	jalr	164(ra) # 7398 <unlink>
  unlink("lf2");
    32fc:	00006517          	auipc	a0,0x6
    3300:	88c50513          	addi	a0,a0,-1908 # 8b88 <malloc+0x1118>
    3304:	00004097          	auipc	ra,0x4
    3308:	094080e7          	jalr	148(ra) # 7398 <unlink>

  fd = open("lf1", O_CREATE|O_RDWR);
    330c:	20200593          	li	a1,514
    3310:	00006517          	auipc	a0,0x6
    3314:	87050513          	addi	a0,a0,-1936 # 8b80 <malloc+0x1110>
    3318:	00004097          	auipc	ra,0x4
    331c:	070080e7          	jalr	112(ra) # 7388 <open>
    3320:	87aa                	mv	a5,a0
    3322:	fef42623          	sw	a5,-20(s0)
  if(fd < 0){
    3326:	fec42783          	lw	a5,-20(s0)
    332a:	2781                	sext.w	a5,a5
    332c:	0207d163          	bgez	a5,334e <linktest+0x6e>
    printf("%s: create lf1 failed\n", s);
    3330:	fd843583          	ld	a1,-40(s0)
    3334:	00006517          	auipc	a0,0x6
    3338:	85c50513          	addi	a0,a0,-1956 # 8b90 <malloc+0x1120>
    333c:	00004097          	auipc	ra,0x4
    3340:	542080e7          	jalr	1346(ra) # 787e <printf>
    exit(1);
    3344:	4505                	li	a0,1
    3346:	00004097          	auipc	ra,0x4
    334a:	002080e7          	jalr	2(ra) # 7348 <exit>
  }
  if(write(fd, "hello", SZ) != SZ){
    334e:	fec42783          	lw	a5,-20(s0)
    3352:	4615                	li	a2,5
    3354:	00005597          	auipc	a1,0x5
    3358:	77c58593          	addi	a1,a1,1916 # 8ad0 <malloc+0x1060>
    335c:	853e                	mv	a0,a5
    335e:	00004097          	auipc	ra,0x4
    3362:	00a080e7          	jalr	10(ra) # 7368 <write>
    3366:	87aa                	mv	a5,a0
    3368:	873e                	mv	a4,a5
    336a:	4795                	li	a5,5
    336c:	02f70163          	beq	a4,a5,338e <linktest+0xae>
    printf("%s: write lf1 failed\n", s);
    3370:	fd843583          	ld	a1,-40(s0)
    3374:	00006517          	auipc	a0,0x6
    3378:	83450513          	addi	a0,a0,-1996 # 8ba8 <malloc+0x1138>
    337c:	00004097          	auipc	ra,0x4
    3380:	502080e7          	jalr	1282(ra) # 787e <printf>
    exit(1);
    3384:	4505                	li	a0,1
    3386:	00004097          	auipc	ra,0x4
    338a:	fc2080e7          	jalr	-62(ra) # 7348 <exit>
  }
  close(fd);
    338e:	fec42783          	lw	a5,-20(s0)
    3392:	853e                	mv	a0,a5
    3394:	00004097          	auipc	ra,0x4
    3398:	fdc080e7          	jalr	-36(ra) # 7370 <close>

  if(link("lf1", "lf2") < 0){
    339c:	00005597          	auipc	a1,0x5
    33a0:	7ec58593          	addi	a1,a1,2028 # 8b88 <malloc+0x1118>
    33a4:	00005517          	auipc	a0,0x5
    33a8:	7dc50513          	addi	a0,a0,2012 # 8b80 <malloc+0x1110>
    33ac:	00004097          	auipc	ra,0x4
    33b0:	ffc080e7          	jalr	-4(ra) # 73a8 <link>
    33b4:	87aa                	mv	a5,a0
    33b6:	0207d163          	bgez	a5,33d8 <linktest+0xf8>
    printf("%s: link lf1 lf2 failed\n", s);
    33ba:	fd843583          	ld	a1,-40(s0)
    33be:	00006517          	auipc	a0,0x6
    33c2:	80250513          	addi	a0,a0,-2046 # 8bc0 <malloc+0x1150>
    33c6:	00004097          	auipc	ra,0x4
    33ca:	4b8080e7          	jalr	1208(ra) # 787e <printf>
    exit(1);
    33ce:	4505                	li	a0,1
    33d0:	00004097          	auipc	ra,0x4
    33d4:	f78080e7          	jalr	-136(ra) # 7348 <exit>
  }
  unlink("lf1");
    33d8:	00005517          	auipc	a0,0x5
    33dc:	7a850513          	addi	a0,a0,1960 # 8b80 <malloc+0x1110>
    33e0:	00004097          	auipc	ra,0x4
    33e4:	fb8080e7          	jalr	-72(ra) # 7398 <unlink>

  if(open("lf1", 0) >= 0){
    33e8:	4581                	li	a1,0
    33ea:	00005517          	auipc	a0,0x5
    33ee:	79650513          	addi	a0,a0,1942 # 8b80 <malloc+0x1110>
    33f2:	00004097          	auipc	ra,0x4
    33f6:	f96080e7          	jalr	-106(ra) # 7388 <open>
    33fa:	87aa                	mv	a5,a0
    33fc:	0207c163          	bltz	a5,341e <linktest+0x13e>
    printf("%s: unlinked lf1 but it is still there!\n", s);
    3400:	fd843583          	ld	a1,-40(s0)
    3404:	00005517          	auipc	a0,0x5
    3408:	7dc50513          	addi	a0,a0,2012 # 8be0 <malloc+0x1170>
    340c:	00004097          	auipc	ra,0x4
    3410:	472080e7          	jalr	1138(ra) # 787e <printf>
    exit(1);
    3414:	4505                	li	a0,1
    3416:	00004097          	auipc	ra,0x4
    341a:	f32080e7          	jalr	-206(ra) # 7348 <exit>
  }

  fd = open("lf2", 0);
    341e:	4581                	li	a1,0
    3420:	00005517          	auipc	a0,0x5
    3424:	76850513          	addi	a0,a0,1896 # 8b88 <malloc+0x1118>
    3428:	00004097          	auipc	ra,0x4
    342c:	f60080e7          	jalr	-160(ra) # 7388 <open>
    3430:	87aa                	mv	a5,a0
    3432:	fef42623          	sw	a5,-20(s0)
  if(fd < 0){
    3436:	fec42783          	lw	a5,-20(s0)
    343a:	2781                	sext.w	a5,a5
    343c:	0207d163          	bgez	a5,345e <linktest+0x17e>
    printf("%s: open lf2 failed\n", s);
    3440:	fd843583          	ld	a1,-40(s0)
    3444:	00005517          	auipc	a0,0x5
    3448:	7cc50513          	addi	a0,a0,1996 # 8c10 <malloc+0x11a0>
    344c:	00004097          	auipc	ra,0x4
    3450:	432080e7          	jalr	1074(ra) # 787e <printf>
    exit(1);
    3454:	4505                	li	a0,1
    3456:	00004097          	auipc	ra,0x4
    345a:	ef2080e7          	jalr	-270(ra) # 7348 <exit>
  }
  if(read(fd, buf, sizeof(buf)) != SZ){
    345e:	fec42783          	lw	a5,-20(s0)
    3462:	660d                	lui	a2,0x3
    3464:	00007597          	auipc	a1,0x7
    3468:	fa458593          	addi	a1,a1,-92 # a408 <buf>
    346c:	853e                	mv	a0,a5
    346e:	00004097          	auipc	ra,0x4
    3472:	ef2080e7          	jalr	-270(ra) # 7360 <read>
    3476:	87aa                	mv	a5,a0
    3478:	873e                	mv	a4,a5
    347a:	4795                	li	a5,5
    347c:	02f70163          	beq	a4,a5,349e <linktest+0x1be>
    printf("%s: read lf2 failed\n", s);
    3480:	fd843583          	ld	a1,-40(s0)
    3484:	00005517          	auipc	a0,0x5
    3488:	7a450513          	addi	a0,a0,1956 # 8c28 <malloc+0x11b8>
    348c:	00004097          	auipc	ra,0x4
    3490:	3f2080e7          	jalr	1010(ra) # 787e <printf>
    exit(1);
    3494:	4505                	li	a0,1
    3496:	00004097          	auipc	ra,0x4
    349a:	eb2080e7          	jalr	-334(ra) # 7348 <exit>
  }
  close(fd);
    349e:	fec42783          	lw	a5,-20(s0)
    34a2:	853e                	mv	a0,a5
    34a4:	00004097          	auipc	ra,0x4
    34a8:	ecc080e7          	jalr	-308(ra) # 7370 <close>

  if(link("lf2", "lf2") >= 0){
    34ac:	00005597          	auipc	a1,0x5
    34b0:	6dc58593          	addi	a1,a1,1756 # 8b88 <malloc+0x1118>
    34b4:	00005517          	auipc	a0,0x5
    34b8:	6d450513          	addi	a0,a0,1748 # 8b88 <malloc+0x1118>
    34bc:	00004097          	auipc	ra,0x4
    34c0:	eec080e7          	jalr	-276(ra) # 73a8 <link>
    34c4:	87aa                	mv	a5,a0
    34c6:	0207c163          	bltz	a5,34e8 <linktest+0x208>
    printf("%s: link lf2 lf2 succeeded! oops\n", s);
    34ca:	fd843583          	ld	a1,-40(s0)
    34ce:	00005517          	auipc	a0,0x5
    34d2:	77250513          	addi	a0,a0,1906 # 8c40 <malloc+0x11d0>
    34d6:	00004097          	auipc	ra,0x4
    34da:	3a8080e7          	jalr	936(ra) # 787e <printf>
    exit(1);
    34de:	4505                	li	a0,1
    34e0:	00004097          	auipc	ra,0x4
    34e4:	e68080e7          	jalr	-408(ra) # 7348 <exit>
  }

  unlink("lf2");
    34e8:	00005517          	auipc	a0,0x5
    34ec:	6a050513          	addi	a0,a0,1696 # 8b88 <malloc+0x1118>
    34f0:	00004097          	auipc	ra,0x4
    34f4:	ea8080e7          	jalr	-344(ra) # 7398 <unlink>
  if(link("lf2", "lf1") >= 0){
    34f8:	00005597          	auipc	a1,0x5
    34fc:	68858593          	addi	a1,a1,1672 # 8b80 <malloc+0x1110>
    3500:	00005517          	auipc	a0,0x5
    3504:	68850513          	addi	a0,a0,1672 # 8b88 <malloc+0x1118>
    3508:	00004097          	auipc	ra,0x4
    350c:	ea0080e7          	jalr	-352(ra) # 73a8 <link>
    3510:	87aa                	mv	a5,a0
    3512:	0207c163          	bltz	a5,3534 <linktest+0x254>
    printf("%s: link non-existent succeeded! oops\n", s);
    3516:	fd843583          	ld	a1,-40(s0)
    351a:	00005517          	auipc	a0,0x5
    351e:	74e50513          	addi	a0,a0,1870 # 8c68 <malloc+0x11f8>
    3522:	00004097          	auipc	ra,0x4
    3526:	35c080e7          	jalr	860(ra) # 787e <printf>
    exit(1);
    352a:	4505                	li	a0,1
    352c:	00004097          	auipc	ra,0x4
    3530:	e1c080e7          	jalr	-484(ra) # 7348 <exit>
  }

  if(link(".", "lf1") >= 0){
    3534:	00005597          	auipc	a1,0x5
    3538:	64c58593          	addi	a1,a1,1612 # 8b80 <malloc+0x1110>
    353c:	00005517          	auipc	a0,0x5
    3540:	75450513          	addi	a0,a0,1876 # 8c90 <malloc+0x1220>
    3544:	00004097          	auipc	ra,0x4
    3548:	e64080e7          	jalr	-412(ra) # 73a8 <link>
    354c:	87aa                	mv	a5,a0
    354e:	0207c163          	bltz	a5,3570 <linktest+0x290>
    printf("%s: link . lf1 succeeded! oops\n", s);
    3552:	fd843583          	ld	a1,-40(s0)
    3556:	00005517          	auipc	a0,0x5
    355a:	74250513          	addi	a0,a0,1858 # 8c98 <malloc+0x1228>
    355e:	00004097          	auipc	ra,0x4
    3562:	320080e7          	jalr	800(ra) # 787e <printf>
    exit(1);
    3566:	4505                	li	a0,1
    3568:	00004097          	auipc	ra,0x4
    356c:	de0080e7          	jalr	-544(ra) # 7348 <exit>
  }
}
    3570:	0001                	nop
    3572:	70a2                	ld	ra,40(sp)
    3574:	7402                	ld	s0,32(sp)
    3576:	6145                	addi	sp,sp,48
    3578:	8082                	ret

000000000000357a <concreate>:

// test concurrent create/link/unlink of the same file
void
concreate(char *s)
{
    357a:	7119                	addi	sp,sp,-128
    357c:	fc86                	sd	ra,120(sp)
    357e:	f8a2                	sd	s0,112(sp)
    3580:	0100                	addi	s0,sp,128
    3582:	f8a43423          	sd	a0,-120(s0)
  struct {
    ushort inum;
    char name[DIRSIZ];
  } de;

  file[0] = 'C';
    3586:	04300793          	li	a5,67
    358a:	fcf40c23          	sb	a5,-40(s0)
  file[2] = '\0';
    358e:	fc040d23          	sb	zero,-38(s0)
  for(i = 0; i < N; i++){
    3592:	fe042623          	sw	zero,-20(s0)
    3596:	a215                	j	36ba <concreate+0x140>
    file[1] = '0' + i;
    3598:	fec42783          	lw	a5,-20(s0)
    359c:	0ff7f793          	andi	a5,a5,255
    35a0:	0307879b          	addiw	a5,a5,48
    35a4:	0ff7f793          	andi	a5,a5,255
    35a8:	fcf40ca3          	sb	a5,-39(s0)
    unlink(file);
    35ac:	fd840793          	addi	a5,s0,-40
    35b0:	853e                	mv	a0,a5
    35b2:	00004097          	auipc	ra,0x4
    35b6:	de6080e7          	jalr	-538(ra) # 7398 <unlink>
    pid = fork();
    35ba:	00004097          	auipc	ra,0x4
    35be:	d86080e7          	jalr	-634(ra) # 7340 <fork>
    35c2:	87aa                	mv	a5,a0
    35c4:	fef42023          	sw	a5,-32(s0)
    if(pid && (i % 3) == 1){
    35c8:	fe042783          	lw	a5,-32(s0)
    35cc:	2781                	sext.w	a5,a5
    35ce:	c79d                	beqz	a5,35fc <concreate+0x82>
    35d0:	fec42703          	lw	a4,-20(s0)
    35d4:	478d                	li	a5,3
    35d6:	02f767bb          	remw	a5,a4,a5
    35da:	2781                	sext.w	a5,a5
    35dc:	873e                	mv	a4,a5
    35de:	4785                	li	a5,1
    35e0:	00f71e63          	bne	a4,a5,35fc <concreate+0x82>
      link("C0", file);
    35e4:	fd840793          	addi	a5,s0,-40
    35e8:	85be                	mv	a1,a5
    35ea:	00005517          	auipc	a0,0x5
    35ee:	6ce50513          	addi	a0,a0,1742 # 8cb8 <malloc+0x1248>
    35f2:	00004097          	auipc	ra,0x4
    35f6:	db6080e7          	jalr	-586(ra) # 73a8 <link>
    35fa:	a059                	j	3680 <concreate+0x106>
    } else if(pid == 0 && (i % 5) == 1){
    35fc:	fe042783          	lw	a5,-32(s0)
    3600:	2781                	sext.w	a5,a5
    3602:	e79d                	bnez	a5,3630 <concreate+0xb6>
    3604:	fec42703          	lw	a4,-20(s0)
    3608:	4795                	li	a5,5
    360a:	02f767bb          	remw	a5,a4,a5
    360e:	2781                	sext.w	a5,a5
    3610:	873e                	mv	a4,a5
    3612:	4785                	li	a5,1
    3614:	00f71e63          	bne	a4,a5,3630 <concreate+0xb6>
      link("C0", file);
    3618:	fd840793          	addi	a5,s0,-40
    361c:	85be                	mv	a1,a5
    361e:	00005517          	auipc	a0,0x5
    3622:	69a50513          	addi	a0,a0,1690 # 8cb8 <malloc+0x1248>
    3626:	00004097          	auipc	ra,0x4
    362a:	d82080e7          	jalr	-638(ra) # 73a8 <link>
    362e:	a889                	j	3680 <concreate+0x106>
    } else {
      fd = open(file, O_CREATE | O_RDWR);
    3630:	fd840793          	addi	a5,s0,-40
    3634:	20200593          	li	a1,514
    3638:	853e                	mv	a0,a5
    363a:	00004097          	auipc	ra,0x4
    363e:	d4e080e7          	jalr	-690(ra) # 7388 <open>
    3642:	87aa                	mv	a5,a0
    3644:	fef42223          	sw	a5,-28(s0)
      if(fd < 0){
    3648:	fe442783          	lw	a5,-28(s0)
    364c:	2781                	sext.w	a5,a5
    364e:	0207d263          	bgez	a5,3672 <concreate+0xf8>
        printf("concreate create %s failed\n", file);
    3652:	fd840793          	addi	a5,s0,-40
    3656:	85be                	mv	a1,a5
    3658:	00005517          	auipc	a0,0x5
    365c:	66850513          	addi	a0,a0,1640 # 8cc0 <malloc+0x1250>
    3660:	00004097          	auipc	ra,0x4
    3664:	21e080e7          	jalr	542(ra) # 787e <printf>
        exit(1);
    3668:	4505                	li	a0,1
    366a:	00004097          	auipc	ra,0x4
    366e:	cde080e7          	jalr	-802(ra) # 7348 <exit>
      }
      close(fd);
    3672:	fe442783          	lw	a5,-28(s0)
    3676:	853e                	mv	a0,a5
    3678:	00004097          	auipc	ra,0x4
    367c:	cf8080e7          	jalr	-776(ra) # 7370 <close>
    }
    if(pid == 0) {
    3680:	fe042783          	lw	a5,-32(s0)
    3684:	2781                	sext.w	a5,a5
    3686:	e791                	bnez	a5,3692 <concreate+0x118>
      exit(0);
    3688:	4501                	li	a0,0
    368a:	00004097          	auipc	ra,0x4
    368e:	cbe080e7          	jalr	-834(ra) # 7348 <exit>
    } else {
      int xstatus;
      wait(&xstatus);
    3692:	f9c40793          	addi	a5,s0,-100
    3696:	853e                	mv	a0,a5
    3698:	00004097          	auipc	ra,0x4
    369c:	cb8080e7          	jalr	-840(ra) # 7350 <wait>
      if(xstatus != 0)
    36a0:	f9c42783          	lw	a5,-100(s0)
    36a4:	c791                	beqz	a5,36b0 <concreate+0x136>
        exit(1);
    36a6:	4505                	li	a0,1
    36a8:	00004097          	auipc	ra,0x4
    36ac:	ca0080e7          	jalr	-864(ra) # 7348 <exit>
  for(i = 0; i < N; i++){
    36b0:	fec42783          	lw	a5,-20(s0)
    36b4:	2785                	addiw	a5,a5,1
    36b6:	fef42623          	sw	a5,-20(s0)
    36ba:	fec42783          	lw	a5,-20(s0)
    36be:	0007871b          	sext.w	a4,a5
    36c2:	02700793          	li	a5,39
    36c6:	ece7d9e3          	bge	a5,a4,3598 <concreate+0x1e>
    }
  }

  memset(fa, 0, sizeof(fa));
    36ca:	fb040793          	addi	a5,s0,-80
    36ce:	02800613          	li	a2,40
    36d2:	4581                	li	a1,0
    36d4:	853e                	mv	a0,a5
    36d6:	00004097          	auipc	ra,0x4
    36da:	8c8080e7          	jalr	-1848(ra) # 6f9e <memset>
  fd = open(".", 0);
    36de:	4581                	li	a1,0
    36e0:	00005517          	auipc	a0,0x5
    36e4:	5b050513          	addi	a0,a0,1456 # 8c90 <malloc+0x1220>
    36e8:	00004097          	auipc	ra,0x4
    36ec:	ca0080e7          	jalr	-864(ra) # 7388 <open>
    36f0:	87aa                	mv	a5,a0
    36f2:	fef42223          	sw	a5,-28(s0)
  n = 0;
    36f6:	fe042423          	sw	zero,-24(s0)
  while(read(fd, &de, sizeof(de)) > 0){
    36fa:	a86d                	j	37b4 <concreate+0x23a>
    if(de.inum == 0)
    36fc:	fa045783          	lhu	a5,-96(s0)
    3700:	e391                	bnez	a5,3704 <concreate+0x18a>
      continue;
    3702:	a84d                	j	37b4 <concreate+0x23a>
    if(de.name[0] == 'C' && de.name[2] == '\0'){
    3704:	fa244783          	lbu	a5,-94(s0)
    3708:	873e                	mv	a4,a5
    370a:	04300793          	li	a5,67
    370e:	0af71363          	bne	a4,a5,37b4 <concreate+0x23a>
    3712:	fa444783          	lbu	a5,-92(s0)
    3716:	efd9                	bnez	a5,37b4 <concreate+0x23a>
      i = de.name[1] - '0';
    3718:	fa344783          	lbu	a5,-93(s0)
    371c:	2781                	sext.w	a5,a5
    371e:	fd07879b          	addiw	a5,a5,-48
    3722:	fef42623          	sw	a5,-20(s0)
      if(i < 0 || i >= sizeof(fa)){
    3726:	fec42783          	lw	a5,-20(s0)
    372a:	2781                	sext.w	a5,a5
    372c:	0007c963          	bltz	a5,373e <concreate+0x1c4>
    3730:	fec42783          	lw	a5,-20(s0)
    3734:	873e                	mv	a4,a5
    3736:	02700793          	li	a5,39
    373a:	02e7f563          	bgeu	a5,a4,3764 <concreate+0x1ea>
        printf("%s: concreate weird file %s\n", s, de.name);
    373e:	fa040793          	addi	a5,s0,-96
    3742:	0789                	addi	a5,a5,2
    3744:	863e                	mv	a2,a5
    3746:	f8843583          	ld	a1,-120(s0)
    374a:	00005517          	auipc	a0,0x5
    374e:	59650513          	addi	a0,a0,1430 # 8ce0 <malloc+0x1270>
    3752:	00004097          	auipc	ra,0x4
    3756:	12c080e7          	jalr	300(ra) # 787e <printf>
        exit(1);
    375a:	4505                	li	a0,1
    375c:	00004097          	auipc	ra,0x4
    3760:	bec080e7          	jalr	-1044(ra) # 7348 <exit>
      }
      if(fa[i]){
    3764:	fec42783          	lw	a5,-20(s0)
    3768:	ff040713          	addi	a4,s0,-16
    376c:	97ba                	add	a5,a5,a4
    376e:	fc07c783          	lbu	a5,-64(a5)
    3772:	c785                	beqz	a5,379a <concreate+0x220>
        printf("%s: concreate duplicate file %s\n", s, de.name);
    3774:	fa040793          	addi	a5,s0,-96
    3778:	0789                	addi	a5,a5,2
    377a:	863e                	mv	a2,a5
    377c:	f8843583          	ld	a1,-120(s0)
    3780:	00005517          	auipc	a0,0x5
    3784:	58050513          	addi	a0,a0,1408 # 8d00 <malloc+0x1290>
    3788:	00004097          	auipc	ra,0x4
    378c:	0f6080e7          	jalr	246(ra) # 787e <printf>
        exit(1);
    3790:	4505                	li	a0,1
    3792:	00004097          	auipc	ra,0x4
    3796:	bb6080e7          	jalr	-1098(ra) # 7348 <exit>
      }
      fa[i] = 1;
    379a:	fec42783          	lw	a5,-20(s0)
    379e:	ff040713          	addi	a4,s0,-16
    37a2:	97ba                	add	a5,a5,a4
    37a4:	4705                	li	a4,1
    37a6:	fce78023          	sb	a4,-64(a5)
      n++;
    37aa:	fe842783          	lw	a5,-24(s0)
    37ae:	2785                	addiw	a5,a5,1
    37b0:	fef42423          	sw	a5,-24(s0)
  while(read(fd, &de, sizeof(de)) > 0){
    37b4:	fa040713          	addi	a4,s0,-96
    37b8:	fe442783          	lw	a5,-28(s0)
    37bc:	4641                	li	a2,16
    37be:	85ba                	mv	a1,a4
    37c0:	853e                	mv	a0,a5
    37c2:	00004097          	auipc	ra,0x4
    37c6:	b9e080e7          	jalr	-1122(ra) # 7360 <read>
    37ca:	87aa                	mv	a5,a0
    37cc:	f2f048e3          	bgtz	a5,36fc <concreate+0x182>
    }
  }
  close(fd);
    37d0:	fe442783          	lw	a5,-28(s0)
    37d4:	853e                	mv	a0,a5
    37d6:	00004097          	auipc	ra,0x4
    37da:	b9a080e7          	jalr	-1126(ra) # 7370 <close>

  if(n != N){
    37de:	fe842783          	lw	a5,-24(s0)
    37e2:	0007871b          	sext.w	a4,a5
    37e6:	02800793          	li	a5,40
    37ea:	02f70163          	beq	a4,a5,380c <concreate+0x292>
    printf("%s: concreate not enough files in directory listing\n", s);
    37ee:	f8843583          	ld	a1,-120(s0)
    37f2:	00005517          	auipc	a0,0x5
    37f6:	53650513          	addi	a0,a0,1334 # 8d28 <malloc+0x12b8>
    37fa:	00004097          	auipc	ra,0x4
    37fe:	084080e7          	jalr	132(ra) # 787e <printf>
    exit(1);
    3802:	4505                	li	a0,1
    3804:	00004097          	auipc	ra,0x4
    3808:	b44080e7          	jalr	-1212(ra) # 7348 <exit>
  }

  for(i = 0; i < N; i++){
    380c:	fe042623          	sw	zero,-20(s0)
    3810:	a24d                	j	39b2 <concreate+0x438>
    file[1] = '0' + i;
    3812:	fec42783          	lw	a5,-20(s0)
    3816:	0ff7f793          	andi	a5,a5,255
    381a:	0307879b          	addiw	a5,a5,48
    381e:	0ff7f793          	andi	a5,a5,255
    3822:	fcf40ca3          	sb	a5,-39(s0)
    pid = fork();
    3826:	00004097          	auipc	ra,0x4
    382a:	b1a080e7          	jalr	-1254(ra) # 7340 <fork>
    382e:	87aa                	mv	a5,a0
    3830:	fef42023          	sw	a5,-32(s0)
    if(pid < 0){
    3834:	fe042783          	lw	a5,-32(s0)
    3838:	2781                	sext.w	a5,a5
    383a:	0207d163          	bgez	a5,385c <concreate+0x2e2>
      printf("%s: fork failed\n", s);
    383e:	f8843583          	ld	a1,-120(s0)
    3842:	00005517          	auipc	a0,0x5
    3846:	b0650513          	addi	a0,a0,-1274 # 8348 <malloc+0x8d8>
    384a:	00004097          	auipc	ra,0x4
    384e:	034080e7          	jalr	52(ra) # 787e <printf>
      exit(1);
    3852:	4505                	li	a0,1
    3854:	00004097          	auipc	ra,0x4
    3858:	af4080e7          	jalr	-1292(ra) # 7348 <exit>
    }
    if(((i % 3) == 0 && pid == 0) ||
    385c:	fec42703          	lw	a4,-20(s0)
    3860:	478d                	li	a5,3
    3862:	02f767bb          	remw	a5,a4,a5
    3866:	2781                	sext.w	a5,a5
    3868:	e789                	bnez	a5,3872 <concreate+0x2f8>
    386a:	fe042783          	lw	a5,-32(s0)
    386e:	2781                	sext.w	a5,a5
    3870:	cf99                	beqz	a5,388e <concreate+0x314>
       ((i % 3) == 1 && pid != 0)){
    3872:	fec42703          	lw	a4,-20(s0)
    3876:	478d                	li	a5,3
    3878:	02f767bb          	remw	a5,a4,a5
    387c:	2781                	sext.w	a5,a5
    if(((i % 3) == 0 && pid == 0) ||
    387e:	873e                	mv	a4,a5
    3880:	4785                	li	a5,1
    3882:	0af71b63          	bne	a4,a5,3938 <concreate+0x3be>
       ((i % 3) == 1 && pid != 0)){
    3886:	fe042783          	lw	a5,-32(s0)
    388a:	2781                	sext.w	a5,a5
    388c:	c7d5                	beqz	a5,3938 <concreate+0x3be>
      close(open(file, 0));
    388e:	fd840793          	addi	a5,s0,-40
    3892:	4581                	li	a1,0
    3894:	853e                	mv	a0,a5
    3896:	00004097          	auipc	ra,0x4
    389a:	af2080e7          	jalr	-1294(ra) # 7388 <open>
    389e:	87aa                	mv	a5,a0
    38a0:	853e                	mv	a0,a5
    38a2:	00004097          	auipc	ra,0x4
    38a6:	ace080e7          	jalr	-1330(ra) # 7370 <close>
      close(open(file, 0));
    38aa:	fd840793          	addi	a5,s0,-40
    38ae:	4581                	li	a1,0
    38b0:	853e                	mv	a0,a5
    38b2:	00004097          	auipc	ra,0x4
    38b6:	ad6080e7          	jalr	-1322(ra) # 7388 <open>
    38ba:	87aa                	mv	a5,a0
    38bc:	853e                	mv	a0,a5
    38be:	00004097          	auipc	ra,0x4
    38c2:	ab2080e7          	jalr	-1358(ra) # 7370 <close>
      close(open(file, 0));
    38c6:	fd840793          	addi	a5,s0,-40
    38ca:	4581                	li	a1,0
    38cc:	853e                	mv	a0,a5
    38ce:	00004097          	auipc	ra,0x4
    38d2:	aba080e7          	jalr	-1350(ra) # 7388 <open>
    38d6:	87aa                	mv	a5,a0
    38d8:	853e                	mv	a0,a5
    38da:	00004097          	auipc	ra,0x4
    38de:	a96080e7          	jalr	-1386(ra) # 7370 <close>
      close(open(file, 0));
    38e2:	fd840793          	addi	a5,s0,-40
    38e6:	4581                	li	a1,0
    38e8:	853e                	mv	a0,a5
    38ea:	00004097          	auipc	ra,0x4
    38ee:	a9e080e7          	jalr	-1378(ra) # 7388 <open>
    38f2:	87aa                	mv	a5,a0
    38f4:	853e                	mv	a0,a5
    38f6:	00004097          	auipc	ra,0x4
    38fa:	a7a080e7          	jalr	-1414(ra) # 7370 <close>
      close(open(file, 0));
    38fe:	fd840793          	addi	a5,s0,-40
    3902:	4581                	li	a1,0
    3904:	853e                	mv	a0,a5
    3906:	00004097          	auipc	ra,0x4
    390a:	a82080e7          	jalr	-1406(ra) # 7388 <open>
    390e:	87aa                	mv	a5,a0
    3910:	853e                	mv	a0,a5
    3912:	00004097          	auipc	ra,0x4
    3916:	a5e080e7          	jalr	-1442(ra) # 7370 <close>
      close(open(file, 0));
    391a:	fd840793          	addi	a5,s0,-40
    391e:	4581                	li	a1,0
    3920:	853e                	mv	a0,a5
    3922:	00004097          	auipc	ra,0x4
    3926:	a66080e7          	jalr	-1434(ra) # 7388 <open>
    392a:	87aa                	mv	a5,a0
    392c:	853e                	mv	a0,a5
    392e:	00004097          	auipc	ra,0x4
    3932:	a42080e7          	jalr	-1470(ra) # 7370 <close>
    3936:	a899                	j	398c <concreate+0x412>
    } else {
      unlink(file);
    3938:	fd840793          	addi	a5,s0,-40
    393c:	853e                	mv	a0,a5
    393e:	00004097          	auipc	ra,0x4
    3942:	a5a080e7          	jalr	-1446(ra) # 7398 <unlink>
      unlink(file);
    3946:	fd840793          	addi	a5,s0,-40
    394a:	853e                	mv	a0,a5
    394c:	00004097          	auipc	ra,0x4
    3950:	a4c080e7          	jalr	-1460(ra) # 7398 <unlink>
      unlink(file);
    3954:	fd840793          	addi	a5,s0,-40
    3958:	853e                	mv	a0,a5
    395a:	00004097          	auipc	ra,0x4
    395e:	a3e080e7          	jalr	-1474(ra) # 7398 <unlink>
      unlink(file);
    3962:	fd840793          	addi	a5,s0,-40
    3966:	853e                	mv	a0,a5
    3968:	00004097          	auipc	ra,0x4
    396c:	a30080e7          	jalr	-1488(ra) # 7398 <unlink>
      unlink(file);
    3970:	fd840793          	addi	a5,s0,-40
    3974:	853e                	mv	a0,a5
    3976:	00004097          	auipc	ra,0x4
    397a:	a22080e7          	jalr	-1502(ra) # 7398 <unlink>
      unlink(file);
    397e:	fd840793          	addi	a5,s0,-40
    3982:	853e                	mv	a0,a5
    3984:	00004097          	auipc	ra,0x4
    3988:	a14080e7          	jalr	-1516(ra) # 7398 <unlink>
    }
    if(pid == 0)
    398c:	fe042783          	lw	a5,-32(s0)
    3990:	2781                	sext.w	a5,a5
    3992:	e791                	bnez	a5,399e <concreate+0x424>
      exit(0);
    3994:	4501                	li	a0,0
    3996:	00004097          	auipc	ra,0x4
    399a:	9b2080e7          	jalr	-1614(ra) # 7348 <exit>
    else
      wait(0);
    399e:	4501                	li	a0,0
    39a0:	00004097          	auipc	ra,0x4
    39a4:	9b0080e7          	jalr	-1616(ra) # 7350 <wait>
  for(i = 0; i < N; i++){
    39a8:	fec42783          	lw	a5,-20(s0)
    39ac:	2785                	addiw	a5,a5,1
    39ae:	fef42623          	sw	a5,-20(s0)
    39b2:	fec42783          	lw	a5,-20(s0)
    39b6:	0007871b          	sext.w	a4,a5
    39ba:	02700793          	li	a5,39
    39be:	e4e7dae3          	bge	a5,a4,3812 <concreate+0x298>
  }
}
    39c2:	0001                	nop
    39c4:	0001                	nop
    39c6:	70e6                	ld	ra,120(sp)
    39c8:	7446                	ld	s0,112(sp)
    39ca:	6109                	addi	sp,sp,128
    39cc:	8082                	ret

00000000000039ce <linkunlink>:

// another concurrent link/unlink/create test,
// to look for deadlocks.
void
linkunlink(char *s)
{
    39ce:	7179                	addi	sp,sp,-48
    39d0:	f406                	sd	ra,40(sp)
    39d2:	f022                	sd	s0,32(sp)
    39d4:	1800                	addi	s0,sp,48
    39d6:	fca43c23          	sd	a0,-40(s0)
  int pid, i;

  unlink("x");
    39da:	00004517          	auipc	a0,0x4
    39de:	64650513          	addi	a0,a0,1606 # 8020 <malloc+0x5b0>
    39e2:	00004097          	auipc	ra,0x4
    39e6:	9b6080e7          	jalr	-1610(ra) # 7398 <unlink>
  pid = fork();
    39ea:	00004097          	auipc	ra,0x4
    39ee:	956080e7          	jalr	-1706(ra) # 7340 <fork>
    39f2:	87aa                	mv	a5,a0
    39f4:	fef42223          	sw	a5,-28(s0)
  if(pid < 0){
    39f8:	fe442783          	lw	a5,-28(s0)
    39fc:	2781                	sext.w	a5,a5
    39fe:	0207d163          	bgez	a5,3a20 <linkunlink+0x52>
    printf("%s: fork failed\n", s);
    3a02:	fd843583          	ld	a1,-40(s0)
    3a06:	00005517          	auipc	a0,0x5
    3a0a:	94250513          	addi	a0,a0,-1726 # 8348 <malloc+0x8d8>
    3a0e:	00004097          	auipc	ra,0x4
    3a12:	e70080e7          	jalr	-400(ra) # 787e <printf>
    exit(1);
    3a16:	4505                	li	a0,1
    3a18:	00004097          	auipc	ra,0x4
    3a1c:	930080e7          	jalr	-1744(ra) # 7348 <exit>
  }

  unsigned int x = (pid ? 1 : 97);
    3a20:	fe442783          	lw	a5,-28(s0)
    3a24:	2781                	sext.w	a5,a5
    3a26:	c399                	beqz	a5,3a2c <linkunlink+0x5e>
    3a28:	4785                	li	a5,1
    3a2a:	a019                	j	3a30 <linkunlink+0x62>
    3a2c:	06100793          	li	a5,97
    3a30:	fef42423          	sw	a5,-24(s0)
  for(i = 0; i < 100; i++){
    3a34:	fe042623          	sw	zero,-20(s0)
    3a38:	a869                	j	3ad2 <linkunlink+0x104>
    x = x * 1103515245 + 12345;
    3a3a:	fe842703          	lw	a4,-24(s0)
    3a3e:	41c657b7          	lui	a5,0x41c65
    3a42:	e6d7879b          	addiw	a5,a5,-403
    3a46:	02f707bb          	mulw	a5,a4,a5
    3a4a:	0007871b          	sext.w	a4,a5
    3a4e:	678d                	lui	a5,0x3
    3a50:	0397879b          	addiw	a5,a5,57
    3a54:	9fb9                	addw	a5,a5,a4
    3a56:	fef42423          	sw	a5,-24(s0)
    if((x % 3) == 0){
    3a5a:	fe842703          	lw	a4,-24(s0)
    3a5e:	478d                	li	a5,3
    3a60:	02f777bb          	remuw	a5,a4,a5
    3a64:	2781                	sext.w	a5,a5
    3a66:	e395                	bnez	a5,3a8a <linkunlink+0xbc>
      close(open("x", O_RDWR | O_CREATE));
    3a68:	20200593          	li	a1,514
    3a6c:	00004517          	auipc	a0,0x4
    3a70:	5b450513          	addi	a0,a0,1460 # 8020 <malloc+0x5b0>
    3a74:	00004097          	auipc	ra,0x4
    3a78:	914080e7          	jalr	-1772(ra) # 7388 <open>
    3a7c:	87aa                	mv	a5,a0
    3a7e:	853e                	mv	a0,a5
    3a80:	00004097          	auipc	ra,0x4
    3a84:	8f0080e7          	jalr	-1808(ra) # 7370 <close>
    3a88:	a081                	j	3ac8 <linkunlink+0xfa>
    } else if((x % 3) == 1){
    3a8a:	fe842703          	lw	a4,-24(s0)
    3a8e:	478d                	li	a5,3
    3a90:	02f777bb          	remuw	a5,a4,a5
    3a94:	2781                	sext.w	a5,a5
    3a96:	873e                	mv	a4,a5
    3a98:	4785                	li	a5,1
    3a9a:	00f71f63          	bne	a4,a5,3ab8 <linkunlink+0xea>
      link("cat", "x");
    3a9e:	00004597          	auipc	a1,0x4
    3aa2:	58258593          	addi	a1,a1,1410 # 8020 <malloc+0x5b0>
    3aa6:	00005517          	auipc	a0,0x5
    3aaa:	2ba50513          	addi	a0,a0,698 # 8d60 <malloc+0x12f0>
    3aae:	00004097          	auipc	ra,0x4
    3ab2:	8fa080e7          	jalr	-1798(ra) # 73a8 <link>
    3ab6:	a809                	j	3ac8 <linkunlink+0xfa>
    } else {
      unlink("x");
    3ab8:	00004517          	auipc	a0,0x4
    3abc:	56850513          	addi	a0,a0,1384 # 8020 <malloc+0x5b0>
    3ac0:	00004097          	auipc	ra,0x4
    3ac4:	8d8080e7          	jalr	-1832(ra) # 7398 <unlink>
  for(i = 0; i < 100; i++){
    3ac8:	fec42783          	lw	a5,-20(s0)
    3acc:	2785                	addiw	a5,a5,1
    3ace:	fef42623          	sw	a5,-20(s0)
    3ad2:	fec42783          	lw	a5,-20(s0)
    3ad6:	0007871b          	sext.w	a4,a5
    3ada:	06300793          	li	a5,99
    3ade:	f4e7dee3          	bge	a5,a4,3a3a <linkunlink+0x6c>
    }
  }

  if(pid)
    3ae2:	fe442783          	lw	a5,-28(s0)
    3ae6:	2781                	sext.w	a5,a5
    3ae8:	c799                	beqz	a5,3af6 <linkunlink+0x128>
    wait(0);
    3aea:	4501                	li	a0,0
    3aec:	00004097          	auipc	ra,0x4
    3af0:	864080e7          	jalr	-1948(ra) # 7350 <wait>
  else
    exit(0);
}
    3af4:	a031                	j	3b00 <linkunlink+0x132>
    exit(0);
    3af6:	4501                	li	a0,0
    3af8:	00004097          	auipc	ra,0x4
    3afc:	850080e7          	jalr	-1968(ra) # 7348 <exit>
}
    3b00:	70a2                	ld	ra,40(sp)
    3b02:	7402                	ld	s0,32(sp)
    3b04:	6145                	addi	sp,sp,48
    3b06:	8082                	ret

0000000000003b08 <bigdir>:

// directory that uses indirect blocks
void
bigdir(char *s)
{
    3b08:	7139                	addi	sp,sp,-64
    3b0a:	fc06                	sd	ra,56(sp)
    3b0c:	f822                	sd	s0,48(sp)
    3b0e:	0080                	addi	s0,sp,64
    3b10:	fca43423          	sd	a0,-56(s0)
  enum { N = 500 };
  int i, fd;
  char name[10];

  unlink("bd");
    3b14:	00005517          	auipc	a0,0x5
    3b18:	25450513          	addi	a0,a0,596 # 8d68 <malloc+0x12f8>
    3b1c:	00004097          	auipc	ra,0x4
    3b20:	87c080e7          	jalr	-1924(ra) # 7398 <unlink>

  fd = open("bd", O_CREATE);
    3b24:	20000593          	li	a1,512
    3b28:	00005517          	auipc	a0,0x5
    3b2c:	24050513          	addi	a0,a0,576 # 8d68 <malloc+0x12f8>
    3b30:	00004097          	auipc	ra,0x4
    3b34:	858080e7          	jalr	-1960(ra) # 7388 <open>
    3b38:	87aa                	mv	a5,a0
    3b3a:	fef42423          	sw	a5,-24(s0)
  if(fd < 0){
    3b3e:	fe842783          	lw	a5,-24(s0)
    3b42:	2781                	sext.w	a5,a5
    3b44:	0207d163          	bgez	a5,3b66 <bigdir+0x5e>
    printf("%s: bigdir create failed\n", s);
    3b48:	fc843583          	ld	a1,-56(s0)
    3b4c:	00005517          	auipc	a0,0x5
    3b50:	22450513          	addi	a0,a0,548 # 8d70 <malloc+0x1300>
    3b54:	00004097          	auipc	ra,0x4
    3b58:	d2a080e7          	jalr	-726(ra) # 787e <printf>
    exit(1);
    3b5c:	4505                	li	a0,1
    3b5e:	00003097          	auipc	ra,0x3
    3b62:	7ea080e7          	jalr	2026(ra) # 7348 <exit>
  }
  close(fd);
    3b66:	fe842783          	lw	a5,-24(s0)
    3b6a:	853e                	mv	a0,a5
    3b6c:	00004097          	auipc	ra,0x4
    3b70:	804080e7          	jalr	-2044(ra) # 7370 <close>

  for(i = 0; i < N; i++){
    3b74:	fe042623          	sw	zero,-20(s0)
    3b78:	a04d                	j	3c1a <bigdir+0x112>
    name[0] = 'x';
    3b7a:	07800793          	li	a5,120
    3b7e:	fcf40c23          	sb	a5,-40(s0)
    name[1] = '0' + (i / 64);
    3b82:	fec42783          	lw	a5,-20(s0)
    3b86:	41f7d71b          	sraiw	a4,a5,0x1f
    3b8a:	01a7571b          	srliw	a4,a4,0x1a
    3b8e:	9fb9                	addw	a5,a5,a4
    3b90:	4067d79b          	sraiw	a5,a5,0x6
    3b94:	2781                	sext.w	a5,a5
    3b96:	0ff7f793          	andi	a5,a5,255
    3b9a:	0307879b          	addiw	a5,a5,48
    3b9e:	0ff7f793          	andi	a5,a5,255
    3ba2:	fcf40ca3          	sb	a5,-39(s0)
    name[2] = '0' + (i % 64);
    3ba6:	fec42703          	lw	a4,-20(s0)
    3baa:	41f7579b          	sraiw	a5,a4,0x1f
    3bae:	01a7d79b          	srliw	a5,a5,0x1a
    3bb2:	9f3d                	addw	a4,a4,a5
    3bb4:	03f77713          	andi	a4,a4,63
    3bb8:	40f707bb          	subw	a5,a4,a5
    3bbc:	2781                	sext.w	a5,a5
    3bbe:	0ff7f793          	andi	a5,a5,255
    3bc2:	0307879b          	addiw	a5,a5,48
    3bc6:	0ff7f793          	andi	a5,a5,255
    3bca:	fcf40d23          	sb	a5,-38(s0)
    name[3] = '\0';
    3bce:	fc040da3          	sb	zero,-37(s0)
    if(link("bd", name) != 0){
    3bd2:	fd840793          	addi	a5,s0,-40
    3bd6:	85be                	mv	a1,a5
    3bd8:	00005517          	auipc	a0,0x5
    3bdc:	19050513          	addi	a0,a0,400 # 8d68 <malloc+0x12f8>
    3be0:	00003097          	auipc	ra,0x3
    3be4:	7c8080e7          	jalr	1992(ra) # 73a8 <link>
    3be8:	87aa                	mv	a5,a0
    3bea:	c39d                	beqz	a5,3c10 <bigdir+0x108>
      printf("%s: bigdir link(bd, %s) failed\n", s, name);
    3bec:	fd840793          	addi	a5,s0,-40
    3bf0:	863e                	mv	a2,a5
    3bf2:	fc843583          	ld	a1,-56(s0)
    3bf6:	00005517          	auipc	a0,0x5
    3bfa:	19a50513          	addi	a0,a0,410 # 8d90 <malloc+0x1320>
    3bfe:	00004097          	auipc	ra,0x4
    3c02:	c80080e7          	jalr	-896(ra) # 787e <printf>
      exit(1);
    3c06:	4505                	li	a0,1
    3c08:	00003097          	auipc	ra,0x3
    3c0c:	740080e7          	jalr	1856(ra) # 7348 <exit>
  for(i = 0; i < N; i++){
    3c10:	fec42783          	lw	a5,-20(s0)
    3c14:	2785                	addiw	a5,a5,1
    3c16:	fef42623          	sw	a5,-20(s0)
    3c1a:	fec42783          	lw	a5,-20(s0)
    3c1e:	0007871b          	sext.w	a4,a5
    3c22:	1f300793          	li	a5,499
    3c26:	f4e7dae3          	bge	a5,a4,3b7a <bigdir+0x72>
    }
  }

  unlink("bd");
    3c2a:	00005517          	auipc	a0,0x5
    3c2e:	13e50513          	addi	a0,a0,318 # 8d68 <malloc+0x12f8>
    3c32:	00003097          	auipc	ra,0x3
    3c36:	766080e7          	jalr	1894(ra) # 7398 <unlink>
  for(i = 0; i < N; i++){
    3c3a:	fe042623          	sw	zero,-20(s0)
    3c3e:	a851                	j	3cd2 <bigdir+0x1ca>
    name[0] = 'x';
    3c40:	07800793          	li	a5,120
    3c44:	fcf40c23          	sb	a5,-40(s0)
    name[1] = '0' + (i / 64);
    3c48:	fec42783          	lw	a5,-20(s0)
    3c4c:	41f7d71b          	sraiw	a4,a5,0x1f
    3c50:	01a7571b          	srliw	a4,a4,0x1a
    3c54:	9fb9                	addw	a5,a5,a4
    3c56:	4067d79b          	sraiw	a5,a5,0x6
    3c5a:	2781                	sext.w	a5,a5
    3c5c:	0ff7f793          	andi	a5,a5,255
    3c60:	0307879b          	addiw	a5,a5,48
    3c64:	0ff7f793          	andi	a5,a5,255
    3c68:	fcf40ca3          	sb	a5,-39(s0)
    name[2] = '0' + (i % 64);
    3c6c:	fec42703          	lw	a4,-20(s0)
    3c70:	41f7579b          	sraiw	a5,a4,0x1f
    3c74:	01a7d79b          	srliw	a5,a5,0x1a
    3c78:	9f3d                	addw	a4,a4,a5
    3c7a:	03f77713          	andi	a4,a4,63
    3c7e:	40f707bb          	subw	a5,a4,a5
    3c82:	2781                	sext.w	a5,a5
    3c84:	0ff7f793          	andi	a5,a5,255
    3c88:	0307879b          	addiw	a5,a5,48
    3c8c:	0ff7f793          	andi	a5,a5,255
    3c90:	fcf40d23          	sb	a5,-38(s0)
    name[3] = '\0';
    3c94:	fc040da3          	sb	zero,-37(s0)
    if(unlink(name) != 0){
    3c98:	fd840793          	addi	a5,s0,-40
    3c9c:	853e                	mv	a0,a5
    3c9e:	00003097          	auipc	ra,0x3
    3ca2:	6fa080e7          	jalr	1786(ra) # 7398 <unlink>
    3ca6:	87aa                	mv	a5,a0
    3ca8:	c385                	beqz	a5,3cc8 <bigdir+0x1c0>
      printf("%s: bigdir unlink failed", s);
    3caa:	fc843583          	ld	a1,-56(s0)
    3cae:	00005517          	auipc	a0,0x5
    3cb2:	10250513          	addi	a0,a0,258 # 8db0 <malloc+0x1340>
    3cb6:	00004097          	auipc	ra,0x4
    3cba:	bc8080e7          	jalr	-1080(ra) # 787e <printf>
      exit(1);
    3cbe:	4505                	li	a0,1
    3cc0:	00003097          	auipc	ra,0x3
    3cc4:	688080e7          	jalr	1672(ra) # 7348 <exit>
  for(i = 0; i < N; i++){
    3cc8:	fec42783          	lw	a5,-20(s0)
    3ccc:	2785                	addiw	a5,a5,1
    3cce:	fef42623          	sw	a5,-20(s0)
    3cd2:	fec42783          	lw	a5,-20(s0)
    3cd6:	0007871b          	sext.w	a4,a5
    3cda:	1f300793          	li	a5,499
    3cde:	f6e7d1e3          	bge	a5,a4,3c40 <bigdir+0x138>
    }
  }
}
    3ce2:	0001                	nop
    3ce4:	0001                	nop
    3ce6:	70e2                	ld	ra,56(sp)
    3ce8:	7442                	ld	s0,48(sp)
    3cea:	6121                	addi	sp,sp,64
    3cec:	8082                	ret

0000000000003cee <subdir>:

void
subdir(char *s)
{
    3cee:	7179                	addi	sp,sp,-48
    3cf0:	f406                	sd	ra,40(sp)
    3cf2:	f022                	sd	s0,32(sp)
    3cf4:	1800                	addi	s0,sp,48
    3cf6:	fca43c23          	sd	a0,-40(s0)
  int fd, cc;

  unlink("ff");
    3cfa:	00005517          	auipc	a0,0x5
    3cfe:	0d650513          	addi	a0,a0,214 # 8dd0 <malloc+0x1360>
    3d02:	00003097          	auipc	ra,0x3
    3d06:	696080e7          	jalr	1686(ra) # 7398 <unlink>
  if(mkdir("dd") != 0){
    3d0a:	00005517          	auipc	a0,0x5
    3d0e:	0ce50513          	addi	a0,a0,206 # 8dd8 <malloc+0x1368>
    3d12:	00003097          	auipc	ra,0x3
    3d16:	69e080e7          	jalr	1694(ra) # 73b0 <mkdir>
    3d1a:	87aa                	mv	a5,a0
    3d1c:	c385                	beqz	a5,3d3c <subdir+0x4e>
    printf("%s: mkdir dd failed\n", s);
    3d1e:	fd843583          	ld	a1,-40(s0)
    3d22:	00005517          	auipc	a0,0x5
    3d26:	0be50513          	addi	a0,a0,190 # 8de0 <malloc+0x1370>
    3d2a:	00004097          	auipc	ra,0x4
    3d2e:	b54080e7          	jalr	-1196(ra) # 787e <printf>
    exit(1);
    3d32:	4505                	li	a0,1
    3d34:	00003097          	auipc	ra,0x3
    3d38:	614080e7          	jalr	1556(ra) # 7348 <exit>
  }

  fd = open("dd/ff", O_CREATE | O_RDWR);
    3d3c:	20200593          	li	a1,514
    3d40:	00005517          	auipc	a0,0x5
    3d44:	0b850513          	addi	a0,a0,184 # 8df8 <malloc+0x1388>
    3d48:	00003097          	auipc	ra,0x3
    3d4c:	640080e7          	jalr	1600(ra) # 7388 <open>
    3d50:	87aa                	mv	a5,a0
    3d52:	fef42623          	sw	a5,-20(s0)
  if(fd < 0){
    3d56:	fec42783          	lw	a5,-20(s0)
    3d5a:	2781                	sext.w	a5,a5
    3d5c:	0207d163          	bgez	a5,3d7e <subdir+0x90>
    printf("%s: create dd/ff failed\n", s);
    3d60:	fd843583          	ld	a1,-40(s0)
    3d64:	00005517          	auipc	a0,0x5
    3d68:	09c50513          	addi	a0,a0,156 # 8e00 <malloc+0x1390>
    3d6c:	00004097          	auipc	ra,0x4
    3d70:	b12080e7          	jalr	-1262(ra) # 787e <printf>
    exit(1);
    3d74:	4505                	li	a0,1
    3d76:	00003097          	auipc	ra,0x3
    3d7a:	5d2080e7          	jalr	1490(ra) # 7348 <exit>
  }
  write(fd, "ff", 2);
    3d7e:	fec42783          	lw	a5,-20(s0)
    3d82:	4609                	li	a2,2
    3d84:	00005597          	auipc	a1,0x5
    3d88:	04c58593          	addi	a1,a1,76 # 8dd0 <malloc+0x1360>
    3d8c:	853e                	mv	a0,a5
    3d8e:	00003097          	auipc	ra,0x3
    3d92:	5da080e7          	jalr	1498(ra) # 7368 <write>
  close(fd);
    3d96:	fec42783          	lw	a5,-20(s0)
    3d9a:	853e                	mv	a0,a5
    3d9c:	00003097          	auipc	ra,0x3
    3da0:	5d4080e7          	jalr	1492(ra) # 7370 <close>

  if(unlink("dd") >= 0){
    3da4:	00005517          	auipc	a0,0x5
    3da8:	03450513          	addi	a0,a0,52 # 8dd8 <malloc+0x1368>
    3dac:	00003097          	auipc	ra,0x3
    3db0:	5ec080e7          	jalr	1516(ra) # 7398 <unlink>
    3db4:	87aa                	mv	a5,a0
    3db6:	0207c163          	bltz	a5,3dd8 <subdir+0xea>
